(dp1
S'output'
p2
S"<type 'exceptions.AttributeError'> "
p3
sS'layer'
p4
S'/Users/garethhandley/Google Drive/University of York/IAPT (Interactive Application Programming Techniques)/Assessments/Assessment 1 - Individual/web2py/web2py.app/Contents/Resources/applications/Longboxes/views/default/collection.html'
p5
sS'code'
p6
S'response.write(\'<!-- We extend the standard longboxes-layout.html -->\\n\', escape=False)\nresponse.write(\'<!DOCTYPE html>\\n\\t<head>\\n\\t\\t<meta charset="utf-8">\\n\\t\\n\\t\\t<!--  Mobile Viewport Fix\\n          j.mp/mobileviewport & davidbcalhoun.com/2010/viewport-metatag\\n          device-width: Occupy full width of the screen in its current orientation\\n          initial-scale = 1.0 retains dimensions instead of zooming out if page height > device height\\n          user-scalable = yes allows the user to zoom in -->\\n\\t\\t<meta name="viewport" content="width=device-width, initial-scale=1.0">\\n\\t\\n\\t\\t<title>Longboxes</title>\\n\\t\\n\\t\\t<!-- include stylesheets -->\\n\\t\\t<link rel="stylesheet" href="\', escape=False)\nresponse.write(URL(\'static\',\'css/bootstrap.min.css\'))\nresponse.write(\'"/>\\n\\t\\t<link rel="stylesheet" href="\', escape=False)\nresponse.write(URL(\'static\',\'css/longboxes.css\'))\nresponse.write(\'"/>\\n\\t\\t\\n\\t\\t<!-- Favicon image is defined here - currently just using default web2py icon -->\\n\\t\\t<link rel="shortcut icon" href="\', escape=False)\nresponse.write(URL(\'static\',\'images/favicon.ico\'))\nresponse.write(\'" type="image/x-icon">\\n\\t\\t<link rel="apple-touch-icon" href="\', escape=False)\nresponse.write(URL(\'static\',\'images/favicon.png\'))\nresponse.write(\'">\\n\\t\\n\\t\\t<!-- Include the standard web2.py js,  css etc. -->\\n\\t\\t\', escape=False)\nresponse.write(\'<script type="text/javascript"><!--\\n    // These variables are used by the web2py_ajax_init function in web2py_ajax.js (which is loaded below).\\n    var w2p_ajax_confirm_message = "\', escape=False)\nresponse.write(T(\'Are you sure you want to delete this object?\'))\nresponse.write(\'";\\n    var w2p_ajax_disable_with_message = "\', escape=False)\nresponse.write(T(\'Working...\'))\nresponse.write(\'";\\n    var w2p_ajax_date_format = "\', escape=False)\nresponse.write(T(\'%Y-%m-%d\'))\nresponse.write(\'";\\n    var w2p_ajax_datetime_format = "\', escape=False)\nresponse.write(T(\'%Y-%m-%d %H:%M:%S\'))\nresponse.write(\'";\\n    var ajax_error_500 = \\\'\', escape=False)\nresponse.write(T.M(\'An error occured, please [[reload %s]] the page\') % URL(args=request.args, vars=request.get_vars))\nresponse.write("\'\\n    //--></script>\\n", escape=False)\nresponse.files.insert(0,URL(\'static\',\'js/jquery.js\'))\nresponse.files.insert(1,URL(\'static\',\'css/calendar.css\'))\nresponse.files.insert(2,URL(\'static\',\'js/calendar.js\'))\nresponse.files.insert(3,URL(\'static\',\'js/web2py.js\'))\nresponse.include_meta()\nresponse.include_files()\nresponse.write(\'\\n\', escape=False)\nresponse.write(\'\\n\\n\\t</head>\\n\\t\\n\\t<body>\\n\\t\\t<!-- NAVBAR - Standard bootstrap navbar is used here -->\\n\\t\\t<nav class="navbar navbar-inverse navbar-fixed-top" role="navigation">\\n\\t\\t\\t<div class="container-fluid">\\n\\t\\t\\t\\t<div class="navbar-header">\\n\\t\\t\\t\\t\\t<button type="button" class="navbar-toggle" data-toggle="collapse" data-target=".navbar-collapse">\\n\\t\\t\\t\\t\\t\\t<span class="sr-only">Toggle navigation</span>\\n\\t\\t\\t\\t\\t\\t<span class="icon-bar"></span>\\n\\t\\t\\t\\t\\t\\t<span class="icon-bar"></span>\\n\\t\\t\\t\\t\\t\\t<span class="icon-bar"></span>\\n\\t\\t\\t\\t\\t</button>\\n\\t\\t\\t\\t\\t<!-- Set our brand and make it always navigate to the index -->\\n\\t\\t\\t\\t\\t<a class="navbar-brand" href="\', escape=False)\nresponse.write(URL(\'index\'))\nresponse.write(\'">Longboxes</a>\\n\\t\\t\\t\\t\\t\\n\\t\\t\\t\\t</div>\\n\\t\\t\\n\\t\\t\\t\\t<!-- This is the portion of the navbar that will \\\'collapse\\\' away on small screens -->\\n\\t\\t\\t\\t<div class="collapse navbar-collapse">\\n\\t\\t\\t\\t\\t<!-- Navbar left - links that appear here -->\\n\\t\\t\\t\\t\\t<ul class="nav navbar-nav">\\n\\t\\t\\t\\t\\t\\t<li><a href="\', escape=False)\nresponse.write(URL(\'index\'))\nresponse.write(\'">Home</a></li>\\n\\t\\t\\t\\t\\t\\t<li><a href="\', escape=False)\nresponse.write(URL(\'search\'))\nresponse.write(\'">Search</a></li>\\n\\t\\t\\t\\t\\t</ul>\\n\\t\\t\\t\\t\\t<!-- Navbar right - links that appear here -->\\n\\t\\t\\t\\t\\t<ul class="nav navbar-nav navbar-right">\\n\\t\\t\\t\\t\\t\\t<!-- If the user is logged in we add some quick links -->\\n\\t\\t\\t\\t\\t\\t\', escape=False)\nif auth.is_logged_in():\n    response.write(\'\\n\\t\\t\\t\\t\\t\\t\\t<li><a href="\', escape=False)\n    response.write(URL(\'update_comic\'))\n    response.write(\'"><span class="glyphicon glyphicon-plus" aria-hidden="true"></span> Add a comic!</a></li>\\n\\t\\t\\t\\t\\t\\t\\t<li><a href="\', escape=False)\n    response.write(URL(\'collection\'))\n    response.write(\'">My Collection</a></li>\\n\\t\\t\\t\\t\\t\\t\', escape=False)\n    pass\nresponse.write("\\n\\t\\t\\t\\t\\t\\t<!-- Add the standard web2py auth navbar elements -->\\n\\t\\t\\t\\t\\t\\t<!-- If we wanted to disable signup we can do so by altering the \'referrer_actions\' -->\\n\\t\\t\\t\\t\\t\\t", escape=False)\nresponse.write(\'auth\' in globals() and auth.navbar(\'Welcome\',mode=\'dropdown\',referrer_actions=[\'register\', \'profile\']) or \'\')\nresponse.write(\'\\n\\t\\t\\t\\t\\t</ul>\\n\\t\\t\\t\\t</div>\\n\\t\\t\\t</div>\\n\\t\\t</nav>\\n   \\n   \\t\\t<!-- This is where we will include the individual pages that extend this file -->\\n\\t\\t\', escape=False)\nresponse.write(\'\\n\\n<div class="flash">\', escape=False)\nresponse.write(response.flash or \'\')\nresponse.write(\'</div>\\n\\n<!-- Collection header section -->\\n<div class="container">\\n\\t<div class="row">\\n\\t\\t<div class="col-md-12">\\n\\t\\t\\t<!-- Display the title as defined in the controller -->\\n\\t\\t\\t<h2>\', escape=False)\nresponse.write(title)\nresponse.write("</h2>\\n\\t\\t\\t<!-- We customise the text do display the name of the collection\'s owner and whether we are looking at public/private -->\\n\\t\\t\\t<p>Hey, you\'re viewing an overview of ", escape=False)\nresponse.write(name_text)\nresponse.write(\' collection.</p>\\n\\t\\t</div>\\n\\t</div>\\n</div>\\n\\n<!-- User\\\'s boxes - they can click on each for a full breakdown -->\\n<div class="container">\\n\\n\\t<hr>\\n\\n\\t<h3>Boxes</h3>\\n\\t\\n\\t<!-- Add a key so user\\\'s know what the buttons mean -->\\n\\t<!-- This is not strictly necessary as the icons should make their meaning clear, but we put them here just in case -->\\n\\t<p><span class="glyphicon glyphicon-pencil" aria-hidden="true"></span> - Edit box details</p>\\n\\t<p><span class="glyphicon glyphicon-trash" aria-hidden="true"></span> - Delete box and move all comics to \\\'Unfiled\\\'</p>\\n\\n\\t<!-- We can dynamically change the number of boxes to be displayed on each row by changing this variables -->\\n\\t\', escape=False)\nbox_count = 0\nresponse.write(\'\\n\\t\', escape=False)\nboxes_per_row = 4\nresponse.write(\'\\n\\t\', escape=False)\nbox_width = 12/boxes_per_row\nresponse.write(\'\\n\\n\\t<!-- Loop through each of the boxes and display it -->\\n\\t\', escape=False)\nfor box in boxes:\n    response.write(\'\\n\\t\\t\\n\\t\\t<!-- Count how many boxes we have displayed on this row -->\\n\\t\\t\', escape=False)\n    box_count = box_count + 1\n    response.write(\'\\n\\t\\t\\n\\t\\t<!-- If this is the first box on this row then we need the row start HTML -->\\n\\t\\t\', escape=False)\n    if box_count == 1:\n        response.write(\'\\n\\t\\t\\t<div class="row text-center">\\n\\t\\t\', escape=False)\n        pass\n    response.write(\'\\n\\t\\t\\t\\n\\t\\t<!-- Create a column for the box -->\\n\\t\\t<div class="col-sm-\', escape=False)\n    response.write(box_width)\n    response.write(\'">\\n\\t\\t\\t<div class="panel panel-default box">\\n\\t\\t\\t\\t<div class="panel-heading">\', escape=False)\n    response.write(H4(box.boxes.name))\n    response.write(\'</div>\\n\\t\\t\\t\\t<div class="panel-body">\\n\\t\\t\\t\\t\\t<!-- If we have one comic we display \\\'comics\\\', otherwise we display \\\'comic\\\' -->\\n\\t\\t\\t\\t\\t<h3>\', escape=False)\n    response.write(box.number_of_comics)\n    response.write(\'\\n\\t\\t\\t\\t\\t\\t\', escape=False)\n    if box.number_of_comics == 1:\n        response.write(\'\\n\\t\\t\\t\\t\\t\\t\\tcomic\\n\\t\\t\\t\\t\\t\\t\', escape=False)\n    else:\n        response.write(\'\\n\\t\\t\\t\\t\\t\\t\\tcomics\\n\\t\\t\\t\\t\\t\\t\', escape=False)\n        pass\n    response.write(\'\\n\\t\\t\\t\\t\\t</h3>\\n\\t\\t\\t\\t\\t<!-- Display correctly formatted creation date and time -->\\n\\t\\t\\t\\t\\t<p>Created: \', escape=False)\n    response.write(box.boxes.created_date.strftime("%H:%I"))\n    response.write(\' \', escape=False)\n    response.write(box.boxes.created_date.strftime("%d/%m/%Y"))\n    response.write(\'</p>\\n\\t\\t\\t\\t\\t<a class="btn btn-default btn-padded" href="\', escape=False)\n    response.write(URL(\'box\',vars={\'id\':box.boxes.id}))\n    response.write(\'">View box</a>\\n\\t\\t\\t\\t\\t<!-- We\\\'re only going to display the edit buttons if we aren\\\'t outputting the unfiled box -->\\n\\t\\t\\t\\t\\t\', escape=False)\n    if box.boxes.name != \'Unfiled\':\n        response.write(\'\\n\\t\\t\\t\\t\\t\\t<!-- We use icons on these buttons to save space and prevent repeated information on every box -->\\n\\t\\t\\t\\t\\t\\t<a class="btn btn-default btn-padded" href="\', escape=False)\n        response.write(URL(\'update_box\',vars={\'box\':box.boxes.id}))\n        response.write(\'"><span class="glyphicon glyphicon-pencil" aria-hidden="true"></span></a>\\n\\t\\t\\t\\t\\t\\t<a class="btn btn-danger btn-padded" data-toggle="modal" data-target="#delete-box-modal" data-box-delete-url="\', escape=False)\n        response.write(URL(\'delete_box\',vars={\'box\':box.boxes.id}))\n        response.write(\'" data-box-name="\', escape=False)\n        response.write(box.boxes.name)\n        response.write(\'"><span class="glyphicon glyphicon-trash" aria-hidden="true"></span></a>\\n\\t\\t\\t\\t\\t\', escape=False)\n        pass\n    response.write(\'\\n\\t\\t\\t\\t</div>\\n\\t\\t\\t</div>\\n\\t\\t</div>\\n\\t\\t\\n\\t\\t<!-- If we are on the last box for the row output the row end HTML and reset the counter -->\\n\\t\\t\', escape=False)\n    if box_count == boxes_per_row:\n        response.write(\'\\n\\t\\t\\t</div>\\n\\t\\t\\t\', escape=False)\n        box_count = 0\n        response.write(\'\\n\\t\\t\', escape=False)\n        pass\n    response.write(\'\\n\\t\\t\\n\\t\', escape=False)\n    pass\nresponse.write("\\n\\t\\n\\t<!--\\n\\tAdd the \'new box\' section if this is the current user\'s collection\\n\\tThis should look somewhat like a box to make it clear what it does\\n\\tIf the user has very few/no boxes in their collection this will be at the top of the page making it obvious how they create a new box\\n\\t-->\\n\\t", escape=False)\nif own_collection == True:\n    response.write(\'\\n\\t\\t<!-- If we need a new row then create it -->\\n\\t\\t\', escape=False)\n    if box_count == 0:\n        response.write(\'\\n\\t\\t\\t<div class="row text-center">\\n\\t\\t\', escape=False)\n        pass\n    response.write(\'\\n\\t\\n\\t\\t<!-- Create the column for the \\\'new box\\\' section -->\\n\\t\\t<div class="col-sm-\', escape=False)\n    response.write(box_width)\n    response.write(\'">\\n\\t\\t\\t<div class="panel panel-default box">\\n\\t\\t\\t\\t<div class="panel-body">\\n\\t\\t\\t\\t\\t<h3><a href="\', escape=False)\n    response.write(URL(\'update_box\'))\n    response.write(\'">Add a box!</a></h3>\\n\\t\\t\\t\\t\\t<h3><a href="\', escape=False)\n    response.write(URL(\'update_box\'))\n    response.write(\'"><span class="glyphicon glyphicon-plus" aria-hidden="true"></span></a></h3>\\n\\t\\t\\t\\t\\t<p>Click the \\\'+\\\' to add a new box to your collection!</p>\\n\\t\\t\\t\\t</div>\\n\\t\\t\\t</div>\\n\\t\\t</div>\\n\\t\\t</div>\\n\\t\', escape=False)\n    pass\nresponse.write(\'\\n\\t\\n\\t</div>\\n\\t\\n</div>\\n\\n<!-- We also display all of the comics (public if viewing another user\\\'s collection) in this collection -->\\n<div class="container">\\n\\n\\t<hr>\\n\\t\\n\\t<h3>Comics</h3>\\n\\t\\n\\t<div class="row text-center">\\n\\t\\n\\t\\t<!-- Loop through each of the comics and display it here -->\\n\\t\\t\', escape=False)\nfor comic in comics:\n    response.write(\'\\n\\t\\t\\n\\t\\t\\t<div class="col-sm-4">\\n\\t\\t\\t\\t<div class="panel panel-default">\\n\\t\\t\\t\\t\\t<div class="panel-body">\\n\\t\\t\\t\\t\\t\\t<!-- We have to get the URL to the image and then output that as an img -->\\n\\t\\t\\t\\t\\t\\t<img src="\', escape=False)\n    response.write(URL(\'download\',args=comic.comics.cover))\n    response.write(\'" style="max-height: 100px;"></img>\\n\\t\\t\\t\\t\\t\\t\', escape=False)\n    response.write(H4(comic.comics.title))\n    response.write(\'\\n\\t\\t\\t\\t\\t\\t<p>Issue Number: \', escape=False)\n    response.write(comic.comics.issue_number)\n    response.write(\'</p>\\n\\t\\t\\t\\t\\t\\t<p>Owner: \', escape=False)\n    response.write(comic.comics.user_id)\n    response.write(\'</p>\\n\\t\\t\\t\\t\\t\\t<a class="btn btn-default btn-padded" href="\', escape=False)\n    response.write(URL(\'comic\',vars={\'id\':comic.comics.id}))\n    response.write(\'">Full details</a>\\n\\t\\t\\t\\t\\t\\t<a class="btn btn-default btn-padded" href="\', escape=False)\n    response.write(URL(\'update_comic\',vars={\'comic\':comic.comics.id}))\n    response.write(\'"><span class="glyphicon glyphicon-inbox" aria-hidden="true"></span> Manage boxes</a>\\n\\t\\t\\t\\t\\t\\t<a class="btn btn-danger btn-padded" data-toggle="modal" data-target="#delete-comic-modal" data-comic-delete-url="\', escape=False)\n    response.write(URL(\'delete_comic\',vars={\'comic\':comic.comics.id}))\n    response.write(\'" data-box-name="\', escape=False)\n    response.write(comic.comics.name)\n    response.write(\'"><span class="glyphicon glyphicon-trash" aria-hidden="true"></span></a>\\n\\t\\t\\t\\t\\t</div>\\n\\t\\t\\t\\t</div>\\n\\t\\t\\t</div>\\n\\t\\t\\t\\n\\t\\t\', escape=False)\n    pass\nresponse.write(\'\\n\\t\\t\\n\\t</div>\\n\\n</div>\\n\\n<!-- Modal for deleting a box -->\\n<div class="modal fade" id="delete-box-modal" tabindex="-1" role="dialog" aria-labelledby="delete_box_label">\\n  <div class="modal-dialog" role="document">\\n    <div class="modal-content">\\n      <div class="modal-header">\\n        <button type="button" class="close" data-dismiss="modal" aria-label="Close"><span aria-hidden="true">&times;</span></button>\\n        <h4 class="modal-title" id="delete_box_label">Delete box</h4>\\n      </div>\\n      <div class="modal-body">\\n        <p>Are you sure you want to delete the box "<span id="delete-box-modal-box-name"></span>"?</p>\\n        <p><em>Note: The comics contained in this box will not be delete and will instead be moved into your \\\'unfiled\\\' box</em></p>\\n      </div>\\n      <div class="modal-footer">\\n        <button type="button" class="btn btn-default" data-dismiss="modal">Cancel</button>\\n        <a type="button" class="btn btn-danger" id="delete-box-modal-button">Delete box</a>\\n      </div>\\n    </div>\\n  </div>\\n</div>\\n\\n<!-- Modal for deleting a comic -->\\n<div class="modal fade" id="delete-comic-modal" tabindex="-1" role="dialog" aria-labelledby="delete_comic_label">\\n  <div class="modal-dialog" role="document">\\n    <div class="modal-content">\\n      <div class="modal-header">\\n        <button type="button" class="close" data-dismiss="modal" aria-label="Close"><span aria-hidden="true">&times;</span></button>\\n        <h4 class="modal-title" id="delete_box_label">Delete comic</h4>\\n      </div>\\n      <div class="modal-body">\\n        <p>Are you sure you want to delete the comic "<span id="delete-comic-modal-comic-name"></span>"?</p>\\n      </div>\\n      <div class="modal-footer">\\n        <button type="button" class="btn btn-default" data-dismiss="modal">Cancel</button>\\n        <a type="button" class="btn btn-danger" id="delete-comic-modal-button">Delete comic</a>\\n      </div>\\n    </div>\\n  </div>\\n</div>\\n\\n<script type="text/javascript">\\n\\n\\t//Javascript to populate the delete box modal with the correct link and text\\n\\t$(\\\'#delete-box-modal\\\').on(\\\'show.bs.modal\\\', function(e) {\\n\\n    \\t//Get the box delete url and box name from the clicked button\\\'s data attributes\\n    \\tvar box_url = $(e.relatedTarget).data(\\\'box-delete-url\\\');\\n    \\tvar box_name = $(e.relatedTarget).data(\\\'box-name\\\');\\n\\n\\t\\t//Set the modal text to display the box name\\n\\t\\t$(\\\'#delete-box-modal-box-name\\\').text(box_name);\\n\\t\\t\\n\\t\\t//Set the modal \\\'delete\\\' button to the correct link\\n\\t\\t$(\\\'#delete-box-modal-button\\\').attr(\\\'href\\\', box_url);\\n\\t});\\n\\t\\n\\t//Javascript to populate the delete comic modal with the correct link and text\\n\\t$(\\\'#delete-comic-modal\\\').on(\\\'show.bs.modal\\\', function(e) {\\n\\n    \\t//Get the comic delete url and box name from the clicked button\\\'s data attributes\\n    \\tvar comic_url = $(e.relatedTarget).data(\\\'comic-delete-url\\\');\\n    \\tvar comic_name = $(e.relatedTarget).data(\\\'comic-name\\\');\\n\\n\\t\\t//Set the modal text to display the comic name\\n\\t\\t$(\\\'#delete-comic-modal-comic-name\\\').text(comic_name);\\n\\t\\t\\n\\t\\t//Set the modal \\\'delete\\\' button to the correct link\\n\\t\\t$(\\\'#delete-comic-modal-button\\\').attr(\\\'href\\\', comic_url);\\n\\t});\\n\\n</script>\', escape=False)\nresponse.write(\'\\n \\n \\t\\t<!-- FOOTER - Standard across all pages -->\\n\\t\\t<footer class="footer">\\n\\t\\t\\t<div class="container-fluid">\\n\\t\\t\\t\\t<hr>\\n\\t\\t\\t\\t<!-- Add an up-to-date copyright notice -->\\n\\t\\t\\t\\t\', escape=False)\nresponse.write(T(\'Copyright\'))\nresponse.write(\' &#169; \', escape=False)\nresponse.write(request.now.year)\nresponse.write(\'\\n\\t\\t\\t</div>\\n\\t\\t</footer>\\n\\n\\t\\t<!-- Add some additional js at the bottom -->\\n\\t\\t<script src="\', escape=False)\nresponse.write(URL(\'static\',\'js/bootstrap.min.js\'))\nresponse.write(\'"></script>\\n\\t\\t<script src="\', escape=False)\nresponse.write(URL(\'static\',\'js/web2py-bootstrap3.js\'))\nresponse.write(\'"></script>\\n    </body>\\n</html>\\n\', escape=False)'
p7
sS'snapshot'
p8
(dp9
S'exception'
p10
(dp11
S'__hash__'
p12
S"<method-wrapper '__hash__' of exceptions.AttributeError object>"
p13
sS'__setattr__'
p14
S"<method-wrapper '__setattr__' of exceptions.AttributeError object>"
p15
sS'__reduce_ex__'
p16
S'<built-in method __reduce_ex__ of exceptions.AttributeError object>'
p17
sS'__getslice__'
p18
S"<method-wrapper '__getslice__' of exceptions.AttributeError object>"
p19
sS'__getitem__'
p20
S"<method-wrapper '__getitem__' of exceptions.AttributeError object>"
p21
sS'__setstate__'
p22
S'<built-in method __setstate__ of exceptions.AttributeError object>'
p23
sS'args'
p24
S'()'
p25
sS'__reduce__'
p26
S'<built-in method __reduce__ of exceptions.AttributeError object>'
p27
sS'__str__'
p28
S"<method-wrapper '__str__' of exceptions.AttributeError object>"
p29
sS'__format__'
p30
S'<built-in method __format__ of exceptions.AttributeError object>'
p31
sS'__getattribute__'
p32
S"<method-wrapper '__getattribute__' of exceptions.AttributeError object>"
p33
sS'__class__'
p34
S"<type 'exceptions.AttributeError'>"
p35
sS'__unicode__'
p36
S'<built-in method __unicode__ of exceptions.AttributeError object>'
p37
sS'__delattr__'
p38
S"<method-wrapper '__delattr__' of exceptions.AttributeError object>"
p39
sS'__subclasshook__'
p40
S'<built-in method __subclasshook__ of type object>'
p41
sS'__repr__'
p42
S"<method-wrapper '__repr__' of exceptions.AttributeError object>"
p43
sS'__dict__'
p44
S'{}'
p45
sS'__sizeof__'
p46
S'<built-in method __sizeof__ of exceptions.AttributeError object>'
p47
sS'__doc__'
p48
S"'Attribute not found.'"
p49
sS'__init__'
p50
S"<method-wrapper '__init__' of exceptions.AttributeError object>"
p51
sS'__new__'
p52
S'<built-in method __new__ of type object>'
p53
ssS'evalue'
p54
S''
sS'request'
p55
cgluon.html
XML_unpickle
p56
(S's{d\x00\x00<div><table><tr><td style="font-weight:bold;vertical-align:top;">ajax</td><td style="vertical-align:top;">:</td><td><div>False</div></td></tr><tr><td style="font-weight:bold;vertical-align:top;">application</td><td style="vertical-align:top;">:</td><td><div>Longboxes</div></td></tr><tr><td style="font-weight:bold;vertical-align:top;">args</td><td style="vertical-align:top;">:</td><td><div><table></table></div></td></tr><tr><td style="font-weight:bold;vertical-align:top;">cid</td><td style="vertical-align:top;">:</td><td><div>None</div></td></tr><tr><td style="font-weight:bold;vertical-align:top;">client</td><td style="vertical-align:top;">:</td><td><div>127.0.0.1</div></td></tr><tr><td style="font-weight:bold;vertical-align:top;">controller</td><td style="vertical-align:top;">:</td><td><div>default</div></td></tr><tr><td style="font-weight:bold;vertical-align:top;">cookies</td><td style="vertical-align:top;">:</td><td><div><table><tr><td style="font-weight:bold;vertical-align:top;">session_id_admin</td><td style="vertical-align:top;">:</td><td><div>127.0.0.1-6ba488ab-1a32-4fb5-8d05-190a12407088<table><tr><td style="font-weight:bold;vertical-align:top;">comment</td><td style="vertical-align:top;">:</td><td><div></div></td></tr><tr><td style="font-weight:bold;vertical-align:top;">domain</td><td style="vertical-align:top;">:</td><td><div></div></td></tr><tr><td style="font-weight:bold;vertical-align:top;">expires</td><td style="vertical-align:top;">:</td><td><div></div></td></tr><tr><td style="font-weight:bold;vertical-align:top;">httponly</td><td style="vertical-align:top;">:</td><td><div></div></td></tr><tr><td style="font-weight:bold;vertical-align:top;">max-age</td><td style="vertical-align:top;">:</td><td><div></div></td></tr><tr><td style="font-weight:bold;vertical-align:top;">path</td><td style="vertical-align:top;">:</td><td><div></div></td></tr><tr><td style="font-weight:bold;vertical-align:top;">secure</td><td style="vertical-align:top;">:</td><td><div></div></td></tr><tr><td style="font-weight:bold;vertical-align:top;">version</td><td style="vertical-align:top;">:</td><td><div></div></td></tr></table></div></td></tr><tr><td style="font-weight:bold;vertical-align:top;">session_id_longboxes</td><td style="vertical-align:top;">:</td><td><div>127.0.0.1-0f1fdcd9-e2de-4ecc-97f8-a78d9e16a55a<table><tr><td style="font-weight:bold;vertical-align:top;">comment</td><td style="vertical-align:top;">:</td><td><div></div></td></tr><tr><td style="font-weight:bold;vertical-align:top;">domain</td><td style="vertical-align:top;">:</td><td><div></div></td></tr><tr><td style="font-weight:bold;vertical-align:top;">expires</td><td style="vertical-align:top;">:</td><td><div></div></td></tr><tr><td style="font-weight:bold;vertical-align:top;">httponly</td><td style="vertical-align:top;">:</td><td><div></div></td></tr><tr><td style="font-weight:bold;vertical-align:top;">max-age</td><td style="vertical-align:top;">:</td><td><div></div></td></tr><tr><td style="font-weight:bold;vertical-align:top;">path</td><td style="vertical-align:top;">:</td><td><div></div></td></tr><tr><td style="font-weight:bold;vertical-align:top;">secure</td><td style="vertical-align:top;">:</td><td><div></div></td></tr><tr><td style="font-weight:bold;vertical-align:top;">version</td><td style="vertical-align:top;">:</td><td><div></div></td></tr></table></div></td></tr><tr><td style="font-weight:bold;vertical-align:top;">session_id_welcome</td><td style="vertical-align:top;">:</td><td><div>127.0.0.1-6be5d31b-66f1-4a04-a49b-6f1202444538<table><tr><td style="font-weight:bold;vertical-align:top;">comment</td><td style="vertical-align:top;">:</td><td><div></div></td></tr><tr><td style="font-weight:bold;vertical-align:top;">domain</td><td style="vertical-align:top;">:</td><td><div></div></td></tr><tr><td style="font-weight:bold;vertical-align:top;">expires</td><td style="vertical-align:top;">:</td><td><div></div></td></tr><tr><td style="font-weight:bold;vertical-align:top;">httponly</td><td style="vertical-align:top;">:</td><td><div></div></td></tr><tr><td style="font-weight:bold;vertical-align:top;">max-age</td><td style="vertical-align:top;">:</td><td><div></div></td></tr><tr><td style="font-weight:bold;vertical-align:top;">path</td><td style="vertical-align:top;">:</td><td><div></div></td></tr><tr><td style="font-weight:bold;vertical-align:top;">secure</td><td style="vertical-align:top;">:</td><td><div></div></td></tr><tr><td style="font-weight:bold;vertical-align:top;">version</td><td style="vertical-align:top;">:</td><td><div></div></td></tr></table></div></td></tr></table></div></td></tr><tr><td style="font-weight:bold;vertical-align:top;">env</td><td style="vertical-align:top;">:</td><td><div><table><tr><td style="font-weight:bold;vertical-align:top;">HTTP_ACCEPT</td><td style="vertical-align:top;">:</td><td><div>text/html,application/xhtml+xml,application/xml;q=0.9,*/*;q=0.8</div></td></tr><tr><td style="font-weight:bold;vertical-align:top;">HTTP_ACCEPT_ENCODING</td><td style="vertical-align:top;">:</td><td><div>gzip, deflate</div></td></tr><tr><td style="font-weight:bold;vertical-align:top;">HTTP_ACCEPT_LANGUAGE</td><td style="vertical-align:top;">:</td><td><div>en-us</div></td></tr><tr><td style="font-weight:bold;vertical-align:top;">HTTP_CACHE_CONTROL</td><td style="vertical-align:top;">:</td><td><div>max-age=0</div></td></tr><tr><td style="font-weight:bold;vertical-align:top;">HTTP_CONNECTION</td><td style="vertical-align:top;">:</td><td><div>keep-alive</div></td></tr><tr><td style="font-weight:bold;vertical-align:top;">HTTP_COOKIE</td><td style="vertical-align:top;">:</td><td><div>_ga=GA1.1.1034170765.1408293306; session_id_admin=127.0.0.1-6ba488ab-1a32-4fb5-8d05-190a12407088; session_id_longboxes=127.0.0.1-0f1fdcd9-e2de-4ecc-97f8-a78d9e16a55a; session_id_welcome=127.0.0.1-6be5d31b-66f1-4a04-a49b-6f1202444538</div></td></tr><tr><td style="font-weight:bold;vertical-align:top;">HTTP_HOST</td><td style="vertical-align:top;">:</td><td><div>127.0.0.1:8000</div></td></tr><tr><td style="font-weight:bold;vertical-align:top;">HTTP_REFERER</td><td style="vertical-align:top;">:</td><td><div>http://127.0.0.1:8000/Longboxes/default/collection</div></td></tr><tr><td style="font-weight:bold;vertical-align:top;">HTTP_USER_AGENT</td><td style="vertical-align:top;">:</td><td><div>Mozilla/5.0 (Macintosh; Intel Mac OS X 10_11_1) AppleWebKit/601.2.7 (KHTML, like Gecko) Version/9.0.1 Safari/601.2.7</div></td></tr><tr><td style="font-weight:bold;vertical-align:top;">PATH_INFO</td><td style="vertical-align:top;">:</td><td><div>/Longboxes/default/collection</div></td></tr><tr><td style="font-weight:bold;vertical-align:top;">QUERY_STRING</td><td style="vertical-align:top;">:</td><td><div>box_deleted=True</div></td></tr><tr><td style="font-weight:bold;vertical-align:top;">REMOTE_ADDR</td><td style="vertical-align:top;">:</td><td><div>127.0.0.1</div></td></tr><tr><td style="font-weight:bold;vertical-align:top;">REMOTE_PORT</td><td style="vertical-align:top;">:</td><td><div>54561</div></td></tr><tr><td style="font-weight:bold;vertical-align:top;">REQUEST_METHOD</td><td style="vertical-align:top;">:</td><td><div>GET</div></td></tr><tr><td style="font-weight:bold;vertical-align:top;">SCRIPT_NAME</td><td style="vertical-align:top;">:</td><td><div></div></td></tr><tr><td style="font-weight:bold;vertical-align:top;">SERVER_NAME</td><td style="vertical-align:top;">:</td><td><div>imac.local</div></td></tr><tr><td style="font-weight:bold;vertical-align:top;">SERVER_PORT</td><td style="vertical-align:top;">:</td><td><div>8000</div></td></tr><tr><td style="font-weight:bold;vertical-align:top;">SERVER_PROTOCOL</td><td style="vertical-align:top;">:</td><td><div>HTTP/1.1</div></td></tr><tr><td style="font-weight:bold;vertical-align:top;">SERVER_SOFTWARE</td><td style="vertical-align:top;">:</td><td><div>Rocket 1.2.6</div></td></tr><tr><td style="font-weight:bold;vertical-align:top;">app_folders</td><td style="vertical-align:top;">:</td><td><div>set([&#x27;/Users/garethhandley/Google Drive/University of York/IAPT (Interactive Application Programming Techniques)/Assessments/Assessment 1 - Individual/web2py/web2py.app/Contents/Resources/applications/welcome/&#x27;, &#x27;/Users/garethhandley/Google Drive/University of York/IAPT (Interactive Application Programming Techniques)/Assessments/Assessment 1 - Individual/web2py/web2py.app/Contents/Resources/applications/Longboxes/&#x27;, &#x27;/Users/garethhandley/Google Drive/University of York/IAPT (Interactive Application Programming Techniques)/Assessments/Assessment 1 - Individual/web2py/web2py.app/Contents/Resources/applications/admin/&#x27;])</div></td></tr><tr><td style="font-weight:bold;vertical-align:top;">applications_parent</td><td style="vertical-align:top;">:</td><td><div>/Users/garethhandley/Google Drive/University of York/IAPT (Interactive Application Programming Techniques)/Assessments/Assessment 1 - Individual/web2py/web2py.app/Contents/Resources</div></td></tr><tr><td style="font-weight:bold;vertical-align:top;">cmd_args</td><td style="vertical-align:top;">:</td><td><div><table></table></div></td></tr><tr><td style="font-weight:bold;vertical-align:top;">cmd_options</td><td style="vertical-align:top;">:</td><td><div>&lt;Values at 0x1089509e0: {&#x27;verbose&#x27;: False, &#x27;ip&#x27;: &#x27;127.0.0.1&#x27;, &#x27;debuglevel&#x27;: 30, &#x27;with_scheduler&#x27;: False, &#x27;ips&#x27;: [], &#x27;shutdown_timeout&#x27;: 5, &#x27;taskbar&#x27;: False, &#x27;with_coverage&#x27;: False, &#x27;scheduler_groups&#x27;: None, &#x27;port&#x27;: 8000, &#x27;maxthreads&#x27;: None, &#x27;softcron&#x27;: False, &#x27;server_name&#x27;: &#x27;imac.local&#x27;, &#x27;bpython&#x27;: False, &#x27;nogui&#x27;: False, &#x27;pid_filename&#x27;: &#x27;httpserver.pid&#x27;, &#x27;print_errors&#x27;: False, &#x27;extcron&#x27;: False, &#x27;runcron&#x27;: False, &#x27;run_system_tests&#x27;: False, &#x27;test&#x27;: None, &#x27;folder&#x27;: &#x27;/Users/garethhandley/Google Drive/University of York/IAPT (Interactive Application Programming Techniques)/Assessments/Assessment 1 - Individual/web2py/web2py.app/Contents/Resources&#x27;, &#x27;config&#x27;: &#x27;&#x27;, &#x27;minthreads&#x27;: None, &#x27;shell&#x27;: None, &#x27;run&#x27;: &#x27;&#x27;, &#x27;log_filename&#x27;: &#x27;httpserver.log&#x27;, &#x27;profiler_dir&#x27;: None, &#x27;args&#x27;: [&#x27;&#x27;], &#x27;socket_timeout&#x27;: 5, &#x27;ssl_ca_certificate&#x27;: None, &#x27;scheduler&#x27;: None, &#x27;interfaces&#x27;: None, &#x27;ssl_private_key&#x27;: &#x27;&#x27;, &#x27;gae&#x27;: None, &#x27;password&#x27;: &#x27;&lt;ask&gt;&#x27;, &#x27;request_queue_size&#x27;: 5, &#x27;ssl_certificate&#x27;: &#x27;&#x27;, &#x27;cronjob&#x27;: False, &#x27;numthreads&#x27;: None, &#x27;quiet&#x27;: False, &#x27;import_models&#x27;: False, &#x27;timeout&#x27;: 10, &#x27;plain&#x27;: False, &#x27;nobanner&#x27;: False}&gt;</div></td></tr><tr><td style="font-weight:bold;vertical-align:top;">db_sessions</td><td style="vertical-align:top;">:</td><td><div>set([])</div></td></tr><tr><td style="font-weight:bold;vertical-align:top;">debugging</td><td style="vertical-align:top;">:</td><td><div>False</div></td></tr><tr><td style="font-weight:bold;vertical-align:top;">gluon_parent</td><td style="vertical-align:top;">:</td><td><div>/Users/garethhandley/Google Drive/University of York/IAPT (Interactive Application Programming Techniques)/Assessments/Assessment 1 - Individual/web2py/web2py.app/Contents/Resources</div></td></tr><tr><td style="font-weight:bold;vertical-align:top;">http_accept</td><td style="vertical-align:top;">:</td><td><div>text/html,application/xhtml+xml,application/xml;q=0.9,*/*;q=0.8</div></td></tr><tr><td style="font-weight:bold;vertical-align:top;">http_accept_encoding</td><td style="vertical-align:top;">:</td><td><div>gzip, deflate</div></td></tr><tr><td style="font-weight:bold;vertical-align:top;">http_accept_language</td><td style="vertical-align:top;">:</td><td><div>en-us</div></td></tr><tr><td style="font-weight:bold;vertical-align:top;">http_cache_control</td><td style="vertical-align:top;">:</td><td><div>max-age=0</div></td></tr><tr><td style="font-weight:bold;vertical-align:top;">http_connection</td><td style="vertical-align:top;">:</td><td><div>keep-alive</div></td></tr><tr><td style="font-weight:bold;vertical-align:top;">http_cookie</td><td style="vertical-align:top;">:</td><td><div>_ga=GA1.1.1034170765.1408293306; session_id_admin=127.0.0.1-6ba488ab-1a32-4fb5-8d05-190a12407088; session_id_longboxes=127.0.0.1-0f1fdcd9-e2de-4ecc-97f8-a78d9e16a55a; session_id_welcome=127.0.0.1-6be5d31b-66f1-4a04-a49b-6f1202444538</div></td></tr><tr><td style="font-weight:bold;vertical-align:top;">http_host</td><td style="vertical-align:top;">:</td><td><div>127.0.0.1:8000</div></td></tr><tr><td style="font-weight:bold;vertical-align:top;">http_referer</td><td style="vertical-align:top;">:</td><td><div>http://127.0.0.1:8000/Longboxes/default/collection</div></td></tr><tr><td style="font-weight:bold;vertical-align:top;">http_user_agent</td><td style="vertical-align:top;">:</td><td><div>Mozilla/5.0 (Macintosh; Intel Mac OS X 10_11_1) AppleWebKit/601.2.7 (KHTML, like Gecko) Version/9.0.1 Safari/601.2.7</div></td></tr><tr><td style="font-weight:bold;vertical-align:top;">is_jython</td><td style="vertical-align:top;">:</td><td><div>False</div></td></tr><tr><td style="font-weight:bold;vertical-align:top;">is_pypy</td><td style="vertical-align:top;">:</td><td><div>False</div></td></tr><tr><td style="font-weight:bold;vertical-align:top;">is_source</td><td style="vertical-align:top;">:</td><td><div>True</div></td></tr><tr><td style="font-weight:bold;vertical-align:top;">local_hosts</td><td style="vertical-align:top;">:</td><td><div><table><tr><td><div>::1</div></td></tr><tr><td><div>imac.local</div></td></tr><tr><td><div>::ffff:127.0.0.1</div></td></tr><tr><td><div>127.0.0.1</div></td></tr></table></div></td></tr><tr><td style="font-weight:bold;vertical-align:top;">path_info</td><td style="vertical-align:top;">:</td><td><div>/Longboxes/default/collection</div></td></tr><tr><td style="font-weight:bold;vertical-align:top;">query_string</td><td style="vertical-align:top;">:</td><td><div>box_deleted=True</div></td></tr><tr><td style="font-weight:bold;vertical-align:top;">remote_addr</td><td style="vertical-align:top;">:</td><td><div>127.0.0.1</div></td></tr><tr><td style="font-weight:bold;vertical-align:top;">remote_port</td><td style="vertical-align:top;">:</td><td><div>54561</div></td></tr><tr><td style="font-weight:bold;vertical-align:top;">request_method</td><td style="vertical-align:top;">:</td><td><div>GET</div></td></tr><tr><td style="font-weight:bold;vertical-align:top;">request_uri</td><td style="vertical-align:top;">:</td><td><div>/Longboxes/default/collection?box_deleted=True</div></td></tr><tr><td style="font-weight:bold;vertical-align:top;">script_name</td><td style="vertical-align:top;">:</td><td><div></div></td></tr><tr><td style="font-weight:bold;vertical-align:top;">server_name</td><td style="vertical-align:top;">:</td><td><div>imac.local</div></td></tr><tr><td style="font-weight:bold;vertical-align:top;">server_port</td><td style="vertical-align:top;">:</td><td><div>8000</div></td></tr><tr><td style="font-weight:bold;vertical-align:top;">server_protocol</td><td style="vertical-align:top;">:</td><td><div>HTTP/1.1</div></td></tr><tr><td style="font-weight:bold;vertical-align:top;">server_software</td><td style="vertical-align:top;">:</td><td><div>Rocket 1.2.6</div></td></tr><tr><td style="font-weight:bold;vertical-align:top;">web2py_path</td><td style="vertical-align:top;">:</td><td><div>/Users/garethhandley/Google Drive/University of York/IAPT (Interactive Application Programming Techniques)/Assessments/Assessment 1 - Individual/web2py/web2py.app/Contents/Resources</div></td></tr><tr><td style="font-weight:bold;vertical-align:top;">web2py_version</td><td style="vertical-align:top;">:</td><td><div>2.12.3-stable+timestamp.2015.08.19.00.18.03</div></td></tr><tr><td style="font-weight:bold;vertical-align:top;">wsgi.errors</td><td style="vertical-align:top;">:</td><td><div>&lt;open file &#x27;&lt;stderr&gt;&#x27;, mode &#x27;w&#x27; at 0x10005b270&gt;</div></td></tr><tr><td style="font-weight:bold;vertical-align:top;">wsgi.file_wrapper</td><td style="vertical-align:top;">:</td><td><div>&lt;class wsgiref.util.FileWrapper at 0x1088fe460&gt;</div></td></tr><tr><td style="font-weight:bold;vertical-align:top;">wsgi.input</td><td style="vertical-align:top;">:</td><td><div>&lt;socket._fileobject object at 0x10c940bd0&gt;</div></td></tr><tr><td style="font-weight:bold;vertical-align:top;">wsgi.multiprocess</td><td style="vertical-align:top;">:</td><td><div>False</div></td></tr><tr><td style="font-weight:bold;vertical-align:top;">wsgi.multithread</td><td style="vertical-align:top;">:</td><td><div>True</div></td></tr><tr><td style="font-weight:bold;vertical-align:top;">wsgi.run_once</td><td style="vertical-align:top;">:</td><td><div>False</div></td></tr><tr><td style="font-weight:bold;vertical-align:top;">wsgi.url_scheme</td><td style="vertical-align:top;">:</td><td><div>http</div></td></tr><tr><td style="font-weight:bold;vertical-align:top;">wsgi.version</td><td style="vertical-align:top;">:</td><td><div><table><tr><td><div>1</div></td></tr><tr><td><div>0</div></td></tr></table></div></td></tr><tr><td style="font-weight:bold;vertical-align:top;">wsgi_errors</td><td style="vertical-align:top;">:</td><td><div>&lt;open file &#x27;&lt;stderr&gt;&#x27;, mode &#x27;w&#x27; at 0x10005b270&gt;</div></td></tr><tr><td style="font-weight:bold;vertical-align:top;">wsgi_file_wrapper</td><td style="vertical-align:top;">:</td><td><div>&lt;class wsgiref.util.FileWrapper at 0x1088fe460&gt;</div></td></tr><tr><td style="font-weight:bold;vertical-align:top;">wsgi_input</td><td style="vertical-align:top;">:</td><td><div>&lt;socket._fileobject object at 0x10c940bd0&gt;</div></td></tr><tr><td style="font-weight:bold;vertical-align:top;">wsgi_multiprocess</td><td style="vertical-align:top;">:</td><td><div>False</div></td></tr><tr><td style="font-weight:bold;vertical-align:top;">wsgi_multithread</td><td style="vertical-align:top;">:</td><td><div>True</div></td></tr><tr><td style="font-weight:bold;vertical-align:top;">wsgi_run_once</td><td style="vertical-align:top;">:</td><td><div>False</div></td></tr><tr><td style="font-weight:bold;vertical-align:top;">wsgi_url_scheme</td><td style="vertical-align:top;">:</td><td><div>http</div></td></tr><tr><td style="font-weight:bold;vertical-align:top;">wsgi_version</td><td style="vertical-align:top;">:</td><td><div><table><tr><td><div>1</div></td></tr><tr><td><div>0</div></td></tr></table></div></td></tr></table></div></td></tr><tr><td style="font-weight:bold;vertical-align:top;">extension</td><td style="vertical-align:top;">:</td><td><div>html</div></td></tr><tr><td style="font-weight:bold;vertical-align:top;">folder</td><td style="vertical-align:top;">:</td><td><div>/Users/garethhandley/Google Drive/University of York/IAPT (Interactive Application Programming Techniques)/Assessments/Assessment 1 - Individual/web2py/web2py.app/Contents/Resources/applications/Longboxes/</div></td></tr><tr><td style="font-weight:bold;vertical-align:top;">function</td><td style="vertical-align:top;">:</td><td><div>collection</div></td></tr><tr><td style="font-weight:bold;vertical-align:top;">global_settings</td><td style="vertical-align:top;">:</td><td><div><table><tr><td style="font-weight:bold;vertical-align:top;">app_folders</td><td style="vertical-align:top;">:</td><td><div>set([&#x27;/Users/garethhandley/Google Drive/University of York/IAPT (Interactive Application Programming Techniques)/Assessments/Assessment 1 - Individual/web2py/web2py.app/Contents/Resources/applications/welcome/&#x27;, &#x27;/Users/garethhandley/Google Drive/University of York/IAPT (Interactive Application Programming Techniques)/Assessments/Assessment 1 - Individual/web2py/web2py.app/Contents/Resources/applications/Longboxes/&#x27;, &#x27;/Users/garethhandley/Google Drive/University of York/IAPT (Interactive Application Programming Techniques)/Assessments/Assessment 1 - Individual/web2py/web2py.app/Contents/Resources/applications/admin/&#x27;])</div></td></tr><tr><td style="font-weight:bold;vertical-align:top;">applications_parent</td><td style="vertical-align:top;">:</td><td><div>/Users/garethhandley/Google Drive/University of York/IAPT (Interactive Application Programming Techniques)/Assessments/Assessment 1 - Individual/web2py/web2py.app/Contents/Resources</div></td></tr><tr><td style="font-weight:bold;vertical-align:top;">cmd_args</td><td style="vertical-align:top;">:</td><td><div><table></table></div></td></tr><tr><td style="font-weight:bold;vertical-align:top;">cmd_options</td><td style="vertical-align:top;">:</td><td><div>&lt;Values at 0x1089509e0: {&#x27;verbose&#x27;: False, &#x27;ip&#x27;: &#x27;127.0.0.1&#x27;, &#x27;debuglevel&#x27;: 30, &#x27;with_scheduler&#x27;: False, &#x27;ips&#x27;: [], &#x27;shutdown_timeout&#x27;: 5, &#x27;taskbar&#x27;: False, &#x27;with_coverage&#x27;: False, &#x27;scheduler_groups&#x27;: None, &#x27;port&#x27;: 8000, &#x27;maxthreads&#x27;: None, &#x27;softcron&#x27;: False, &#x27;server_name&#x27;: &#x27;imac.local&#x27;, &#x27;bpython&#x27;: False, &#x27;nogui&#x27;: False, &#x27;pid_filename&#x27;: &#x27;httpserver.pid&#x27;, &#x27;print_errors&#x27;: False, &#x27;extcron&#x27;: False, &#x27;runcron&#x27;: False, &#x27;run_system_tests&#x27;: False, &#x27;test&#x27;: None, &#x27;folder&#x27;: &#x27;/Users/garethhandley/Google Drive/University of York/IAPT (Interactive Application Programming Techniques)/Assessments/Assessment 1 - Individual/web2py/web2py.app/Contents/Resources&#x27;, &#x27;config&#x27;: &#x27;&#x27;, &#x27;minthreads&#x27;: None, &#x27;shell&#x27;: None, &#x27;run&#x27;: &#x27;&#x27;, &#x27;log_filename&#x27;: &#x27;httpserver.log&#x27;, &#x27;profiler_dir&#x27;: None, &#x27;args&#x27;: [&#x27;&#x27;], &#x27;socket_timeout&#x27;: 5, &#x27;ssl_ca_certificate&#x27;: None, &#x27;scheduler&#x27;: None, &#x27;interfaces&#x27;: None, &#x27;ssl_private_key&#x27;: &#x27;&#x27;, &#x27;gae&#x27;: None, &#x27;password&#x27;: &#x27;&lt;ask&gt;&#x27;, &#x27;request_queue_size&#x27;: 5, &#x27;ssl_certificate&#x27;: &#x27;&#x27;, &#x27;cronjob&#x27;: False, &#x27;numthreads&#x27;: None, &#x27;quiet&#x27;: False, &#x27;import_models&#x27;: False, &#x27;timeout&#x27;: 10, &#x27;plain&#x27;: False, &#x27;nobanner&#x27;: False}&gt;</div></td></tr><tr><td style="font-weight:bold;vertical-align:top;">db_sessions</td><td style="vertical-align:top;">:</td><td><div>set([])</div></td></tr><tr><td style="font-weight:bold;vertical-align:top;">debugging</td><td style="vertical-align:top;">:</td><td><div>False</div></td></tr><tr><td style="font-weight:bold;vertical-align:top;">gluon_parent</td><td style="vertical-align:top;">:</td><td><div>/Users/garethhandley/Google Drive/University of York/IAPT (Interactive Application Programming Techniques)/Assessments/Assessment 1 - Individual/web2py/web2py.app/Contents/Resources</div></td></tr><tr><td style="font-weight:bold;vertical-align:top;">is_jython</td><td style="vertical-align:top;">:</td><td><div>False</div></td></tr><tr><td style="font-weight:bold;vertical-align:top;">is_pypy</td><td style="vertical-align:top;">:</td><td><div>False</div></td></tr><tr><td style="font-weight:bold;vertical-align:top;">is_source</td><td style="vertical-align:top;">:</td><td><div>True</div></td></tr><tr><td style="font-weight:bold;vertical-align:top;">local_hosts</td><td style="vertical-align:top;">:</td><td><div><table><tr><td><div>::1</div></td></tr><tr><td><div>imac.local</div></td></tr><tr><td><div>::ffff:127.0.0.1</div></td></tr><tr><td><div>127.0.0.1</div></td></tr></table></div></td></tr><tr><td style="font-weight:bold;vertical-align:top;">web2py_version</td><td style="vertical-align:top;">:</td><td><div>2.12.3-stable+timestamp.2015.08.19.00.18.03</div></td></tr></table></div></td></tr><tr><td style="font-weight:bold;vertical-align:top;">is_https</td><td style="vertical-align:top;">:</td><td><div>False</div></td></tr><tr><td style="font-weight:bold;vertical-align:top;">is_local</td><td style="vertical-align:top;">:</td><td><div>True</div></td></tr><tr><td style="font-weight:bold;vertical-align:top;">is_restful</td><td style="vertical-align:top;">:</td><td><div>False</div></td></tr><tr><td style="font-weight:bold;vertical-align:top;">is_sheduler</td><td style="vertical-align:top;">:</td><td><div>None</div></td></tr><tr><td style="font-weight:bold;vertical-align:top;">is_shell</td><td style="vertical-align:top;">:</td><td><div>None</div></td></tr><tr><td style="font-weight:bold;vertical-align:top;">now</td><td style="vertical-align:top;">:</td><td><div>datetime.datetime(2015, 11, 30, 14, 6, 57, 693787)</div></td></tr><tr><td style="font-weight:bold;vertical-align:top;">raw_args</td><td style="vertical-align:top;">:</td><td><div></div></td></tr><tr><td style="font-weight:bold;vertical-align:top;">raw_extension</td><td style="vertical-align:top;">:</td><td><div>None</div></td></tr><tr><td style="font-weight:bold;vertical-align:top;">url</td><td style="vertical-align:top;">:</td><td><div>/Longboxes/default/collection</div></td></tr><tr><td style="font-weight:bold;vertical-align:top;">utcnow</td><td style="vertical-align:top;">:</td><td><div>datetime.datetime(2015, 11, 30, 14, 6, 57, 693794)</div></td></tr><tr><td style="font-weight:bold;vertical-align:top;">wsgi</td><td style="vertical-align:top;">:</td><td><div>&lt;gluon.main.LazyWSGI object at 0x10ca02bd0&gt;</div></td></tr></table></div>'
tRp57
sS'frames'
p58
(lp59
(dp60
S'file'
p61
S'/Users/garethhandley/Google Drive/University of York/IAPT (Interactive Application Programming Techniques)/Assessments/Assessment 1 - Individual/web2py/web2py.app/Contents/Resources/gluon/restricted.py'
p62
sS'dump'
p63
(dp64
sS'lnum'
p65
I227
sS'lines'
p66
(dp67
I224
S'            ccode = code'
p68
sI225
S'        else:'
p69
sI226
S'            ccode = compile2(code, layer)'
p70
sI227
S'        exec ccode in environment'
p71
sI228
S'    except HTTP:'
p72
sI229
S'        raise'
p73
sI230
S'    except RestrictedError:'
p74
sI231
S'        # do not encapsulate (obfuscate) the original RestrictedError'
p75
sI222
S'    try:'
p76
sI223
S'        if isinstance(code, types.CodeType):'
p77
ssS'call'
p78
S'(code=r"response.write(\'<!-- We extend the standard long...</script>\\n    </body>\\n</html>\\n\', escape=False)", environment={\'A\': <class \'gluon.html.A\'>, \'ANY_OF\': <class \'gluon.validators.ANY_OF\'>, \'ASSIGNJS\': <function ASSIGNJS>, \'Auth\': <class \'gluon.tools.Auth\'>, \'B\': <class \'gluon.html.B\'>, \'BEAUTIFY\': <class \'gluon.html.BEAUTIFY\'>, \'BODY\': <class \'gluon.html.BODY\'>, \'BR\': <class \'gluon.html.BR\'>, \'BUTTON\': <class \'gluon.html.BUTTON\'>, \'CAT\': <class \'gluon.html.CAT\'>, ...}, layer=\'/Users/garethhandley/Google Drive/University of ...lications/Longboxes/views/default/collection.html\')'
p79
sS'func'
p80
S'restricted'
p81
sa(dp82
g61
S'/Users/garethhandley/Google Drive/University of York/IAPT (Interactive Application Programming Techniques)/Assessments/Assessment 1 - Individual/web2py/web2py.app/Contents/Resources/applications/Longboxes/views/default/collection.html'
p83
sg63
(dp84
sg65
I133
sg66
(dp85
I128
S'    response.write(\'">Full details</a>\\n\\t\\t\\t\\t\\t\\t<a class="btn btn-default btn-padded" href="\', escape=False)'
p86
sI129
S"    response.write(URL('update_comic',vars={'comic':comic.comics.id}))"
p87
sI130
S'    response.write(\'"><span class="glyphicon glyphicon-inbox" aria-hidden="true"></span> Manage boxes</a>\\n\\t\\t\\t\\t\\t\\t<a class="btn btn-danger btn-padded" data-toggle="modal" data-target="#delete-comic-modal" data-comic-delete-url="\', escape=False)'
p88
sI131
S"    response.write(URL('delete_comic',vars={'comic':comic.comics.id}))"
p89
sI132
S'    response.write(\'" data-box-name="\', escape=False)'
p90
sI133
S'    response.write(comic.comics.name)'
p91
sI134
S'    response.write(\'"><span class="glyphicon glyphicon-trash" aria-hidden="true"></span></a>\\n\\t\\t\\t\\t\\t</div>\\n\\t\\t\\t\\t</div>\\n\\t\\t\\t</div>\\n\\t\\t\\t\\n\\t\\t\', escape=False)'
p92
sI135
S'    pass'
p93
sI136
S'response.write(\'\\n\\t\\t\\n\\t</div>\\n\\n</div>\\n\\n<!-- Modal for deleting a box -->\\n<div class="modal fade" id="delete-box-modal" tabindex="-1" role="dialog" aria-labelledby="delete_box_label">\\n  <div class="modal-dialog" role="document">\\n    <div class="modal-content">\\n      <div class="modal-header">\\n        <button type="button" class="close" data-dismiss="modal" aria-label="Close"><span aria-hidden="true">&times;</span></button>\\n        <h4 class="modal-title" id="delete_box_label">Delete box</h4>\\n      </div>\\n      <div class="modal-body">\\n        <p>Are you sure you want to delete the box "<span id="delete-box-modal-box-name"></span>"?</p>\\n        <p><em>Note: The comics contained in this box will not be delete and will instead be moved into your \\\'unfiled\\\' box</em></p>\\n      </div>\\n      <div class="modal-footer">\\n        <button type="button" class="btn btn-default" data-dismiss="modal">Cancel</button>\\n        <a type="button" class="btn btn-danger" id="delete-box-modal-button">Delete box</a>\\n      </div>\\n    </div>\\n  </div>\\n</div>\\n\\n<!-- Modal for deleting a comic -->\\n<div class="modal fade" id="delete-comic-modal" tabindex="-1" role="dialog" aria-labelledby="delete_comic_label">\\n  <div class="modal-dialog" role="document">\\n    <div class="modal-content">\\n      <div class="modal-header">\\n        <button type="button" class="close" data-dismiss="modal" aria-label="Close"><span aria-hidden="true">&times;</span></button>\\n        <h4 class="modal-title" id="delete_box_label">Delete comic</h4>\\n      </div>\\n      <div class="modal-body">\\n        <p>Are you sure you want to delete the comic "<span id="delete-comic-modal-comic-name"></span>"?</p>\\n      </div>\\n      <div class="modal-footer">\\n        <button type="button" class="btn btn-default" data-dismiss="modal">Cancel</button>\\n        <a type="button" class="btn btn-danger" id="delete-comic-modal-button">Delete comic</a>\\n      </div>\\n    </div>\\n  </div>\\n</div>\\n\\n<script type="text/javascript">\\n\\n\\t//Javascript to populate the delete box modal with the correct link and text\\n\\t$(\\\'#delete-box-modal\\\').on(\\\'show.bs.modal\\\', function(e) {\\n\\n    \\t//Get the box delete url and box name from the clicked button\\\'s data attributes\\n    \\tvar box_url = $(e.relatedTarget).data(\\\'box-delete-url\\\');\\n    \\tvar box_name = $(e.relatedTarget).data(\\\'box-name\\\');\\n\\n\\t\\t//Set the modal text to display the box name\\n\\t\\t$(\\\'#delete-box-modal-box-name\\\').text(box_name);\\n\\t\\t\\n\\t\\t//Set the modal \\\'delete\\\' button to the correct link\\n\\t\\t$(\\\'#delete-box-modal-button\\\').attr(\\\'href\\\', box_url);\\n\\t});\\n\\t\\n\\t//Javascript to populate the delete comic modal with the correct link and text\\n\\t$(\\\'#delete-comic-modal\\\').on(\\\'show.bs.modal\\\', function(e) {\\n\\n    \\t//Get the comic delete url and box name from the clicked button\\\'s data attributes\\n    \\tvar comic_url = $(e.relatedTarget).data(\\\'comic-delete-url\\\');\\n    \\tvar comic_name = $(e.relatedTarget).data(\\\'comic-name\\\');\\n\\n\\t\\t//Set the modal text to display the comic name\\n\\t\\t$(\\\'#delete-comic-modal-comic-name\\\').text(comic_name);\\n\\t\\t\\n\\t\\t//Set the modal \\\'delete\\\' button to the correct link\\n\\t\\t$(\\\'#delete-comic-modal-button\\\').attr(\\\'href\\\', comic_url);\\n\\t});\\n\\n</script>\', escape=False)'
p94
sI137
S'response.write(\'\\n \\n \\t\\t<!-- FOOTER - Standard across all pages -->\\n\\t\\t<footer class="footer">\\n\\t\\t\\t<div class="container-fluid">\\n\\t\\t\\t\\t<hr>\\n\\t\\t\\t\\t<!-- Add an up-to-date copyright notice -->\\n\\t\\t\\t\\t\', escape=False)'
p95
sI138
S"response.write(T('Copyright'))"
p96
sI139
S"response.write(' &#169; ', escape=False)"
p97
sI140
S'response.write(request.now.year)'
p98
sI141
S'response.write(\'\\n\\t\\t\\t</div>\\n\\t\\t</footer>\\n\\n\\t\\t<!-- Add some additional js at the bottom -->\\n\\t\\t<script src="\', escape=False)'
p99
sI142
S"response.write(URL('static','js/bootstrap.min.js'))"
p100
sI143
S'response.write(\'"></script>\\n\\t\\t<script src="\', escape=False)'
p101
sI124
S"    response.write('</p>\\n\\t\\t\\t\\t\\t\\t<p>Owner: ', escape=False)"
p102
sI125
S'    response.write(comic.comics.user_id)'
p103
sI126
S'    response.write(\'</p>\\n\\t\\t\\t\\t\\t\\t<a class="btn btn-default btn-padded" href="\', escape=False)'
p104
sI127
S"    response.write(URL('comic',vars={'id':comic.comics.id}))"
p105
ssg78
S'()'
p106
sg80
S'<module>'
p107
sa(dp108
g61
S'/Users/garethhandley/Google Drive/University of York/IAPT (Interactive Application Programming Techniques)/Assessments/Assessment 1 - Individual/web2py/web2py.app/Contents/Resources/gluon/packages/dal/pydal/objects.py'
p109
sg63
(dp110
sg65
I90
sg66
(dp111
I85
S''
sI86
S'    def __getattr__(self, k):'
p112
sI87
S'        try:'
p113
sI88
S'            return self.__getitem__(k)'
p114
sI89
S'        except KeyError:'
p115
sI90
S'            raise AttributeError'
p116
sI91
S''
sI92
S'    def __copy__(self):'
p117
sI93
S'        return Row(self)'
p118
sI94
S''
ssg78
S"(self=<Row {'publisher': 'Comics and Stuff', 'box_cont...t', 'user_id': 1L, 'id': 1L, 'issue_number': 1L}>, k='name')"
p119
sg80
S'__getattr__'
p120
sasS'pyver'
p121
S'Python 2.7.3: /Users/garethhandley/Google Drive/University of York/IAPT (Interactive Application Programming Techniques)/Assessments/Assessment 1 - Individual/web2py/web2py.app/Contents/MacOS/python (prefix: /Users/garethhandley/Google Drive/University of York/IAPT (Interactive Application Programming Techniques)/Assessments/Assessment 1 - Individual/web2py/web2py.app/Contents/Resources)'
p122
sS'session'
p123
g56
(S's\x03\n\x00\x00<div><table><tr><td style="font-weight:bold;vertical-align:top;">auth</td><td style="vertical-align:top;">:</td><td><div><table><tr><td style="font-weight:bold;vertical-align:top;">expiration</td><td style="vertical-align:top;">:</td><td><div>3600</div></td></tr><tr><td style="font-weight:bold;vertical-align:top;">hmac_key</td><td style="vertical-align:top;">:</td><td><div>4fe52d0b-f88c-434a-a253-ab3e236dbd52</div></td></tr><tr><td style="font-weight:bold;vertical-align:top;">last_visit</td><td style="vertical-align:top;">:</td><td><div>datetime.datetime(2015, 11, 30, 14, 6, 57, 693787)</div></td></tr><tr><td style="font-weight:bold;vertical-align:top;">remember_me</td><td style="vertical-align:top;">:</td><td><div>False</div></td></tr><tr><td style="font-weight:bold;vertical-align:top;">user</td><td style="vertical-align:top;">:</td><td><div><table><tr><td style="font-weight:bold;vertical-align:top;">first_name</td><td style="vertical-align:top;">:</td><td><div>User1</div></td></tr><tr><td style="font-weight:bold;vertical-align:top;">id</td><td style="vertical-align:top;">:</td><td><div>1L</div></td></tr><tr><td style="font-weight:bold;vertical-align:top;">last_name</td><td style="vertical-align:top;">:</td><td><div>Person</div></td></tr><tr><td style="font-weight:bold;vertical-align:top;">registration_id</td><td style="vertical-align:top;">:</td><td><div></div></td></tr><tr><td style="font-weight:bold;vertical-align:top;">registration_key</td><td style="vertical-align:top;">:</td><td><div></div></td></tr><tr><td style="font-weight:bold;vertical-align:top;">reset_password_key</td><td style="vertical-align:top;">:</td><td><div></div></td></tr><tr><td style="font-weight:bold;vertical-align:top;">username</td><td style="vertical-align:top;">:</td><td><div>user1</div></td></tr></table></div></td></tr><tr><td style="font-weight:bold;vertical-align:top;">user_groups</td><td style="vertical-align:top;">:</td><td><div><table><tr><td style="font-weight:bold;vertical-align:top;">1</td><td style="vertical-align:top;">:</td><td><div>user_1</div></td></tr></table></div></td></tr></table></div></td></tr><tr><td style="font-weight:bold;vertical-align:top;">flash</td><td style="vertical-align:top;">:</td><td><div>None</div></td></tr><tr><td style="font-weight:bold;vertical-align:top;">last_orderby</td><td style="vertical-align:top;">:</td><td><div>None</div></td></tr><tr><td style="font-weight:bold;vertical-align:top;">last_query</td><td style="vertical-align:top;">:</td><td><div>db.box_contents.id&gt;0</div></td></tr></table></div>'
tRp124
sS'etype'
p125
S"<type 'exceptions.AttributeError'>"
p126
sS'date'
p127
S'Mon Nov 30 14:06:57 2015'
p128
sS'response'
p129
g56
(S's\xe1A\x00\x00<div><table><tr><td style="font-weight:bold;vertical-align:top;">body</td><td style="vertical-align:top;">:</td><td><div>&lt;cStringIO.StringO object at 0x10cf34d88&gt;</div></td></tr><tr><td style="font-weight:bold;vertical-align:top;">cookies</td><td style="vertical-align:top;">:</td><td><div><table><tr><td style="font-weight:bold;vertical-align:top;">session_id_longboxes</td><td style="vertical-align:top;">:</td><td><div>127.0.0.1-0f1fdcd9-e2de-4ecc-97f8-a78d9e16a55a<table><tr><td style="font-weight:bold;vertical-align:top;">comment</td><td style="vertical-align:top;">:</td><td><div></div></td></tr><tr><td style="font-weight:bold;vertical-align:top;">domain</td><td style="vertical-align:top;">:</td><td><div></div></td></tr><tr><td style="font-weight:bold;vertical-align:top;">expires</td><td style="vertical-align:top;">:</td><td><div></div></td></tr><tr><td style="font-weight:bold;vertical-align:top;">httponly</td><td style="vertical-align:top;">:</td><td><div></div></td></tr><tr><td style="font-weight:bold;vertical-align:top;">max-age</td><td style="vertical-align:top;">:</td><td><div></div></td></tr><tr><td style="font-weight:bold;vertical-align:top;">path</td><td style="vertical-align:top;">:</td><td><div>/</div></td></tr><tr><td style="font-weight:bold;vertical-align:top;">secure</td><td style="vertical-align:top;">:</td><td><div></div></td></tr><tr><td style="font-weight:bold;vertical-align:top;">version</td><td style="vertical-align:top;">:</td><td><div></div></td></tr></table></div></td></tr></table></div></td></tr><tr><td style="font-weight:bold;vertical-align:top;">delimiters</td><td style="vertical-align:top;">:</td><td><div><table><tr><td><div>{{</div></td></tr><tr><td><div>}}</div></td></tr></table></div></td></tr><tr><td style="font-weight:bold;vertical-align:top;">files</td><td style="vertical-align:top;">:</td><td><div><table><tr><td><div>/Longboxes/static/js/jquery.js</div></td></tr><tr><td><div>/Longboxes/static/css/calendar.css</div></td></tr><tr><td><div>/Longboxes/static/js/calendar.js</div></td></tr><tr><td><div>/Longboxes/static/js/web2py.js</div></td></tr></table></div></td></tr><tr><td style="font-weight:bold;vertical-align:top;">flash</td><td style="vertical-align:top;">:</td><td><div></div></td></tr><tr><td style="font-weight:bold;vertical-align:top;">form_label_separator</td><td style="vertical-align:top;">:</td><td><div>: </div></td></tr><tr><td style="font-weight:bold;vertical-align:top;">formstyle</td><td style="vertical-align:top;">:</td><td><div>table3cols</div></td></tr><tr><td style="font-weight:bold;vertical-align:top;">generic_patterns</td><td style="vertical-align:top;">:</td><td><div><table><tr><td><div>*</div></td></tr></table></div></td></tr><tr><td style="font-weight:bold;vertical-align:top;">google_analytics_id</td><td style="vertical-align:top;">:</td><td><div>None</div></td></tr><tr><td style="font-weight:bold;vertical-align:top;">headers</td><td style="vertical-align:top;">:</td><td><div><table><tr><td style="font-weight:bold;vertical-align:top;">X-Powered-By</td><td style="vertical-align:top;">:</td><td><div>web2py</div></td></tr></table></div></td></tr><tr><td style="font-weight:bold;vertical-align:top;">logo</td><td style="vertical-align:top;">:</td><td><div><a class="navbar-brand" href="http://www.web2py.com/" id="web2py-logo"><b>web<span>2</span>py</b>&trade;&nbsp;</a></div></td></tr><tr><td style="font-weight:bold;vertical-align:top;">menu</td><td style="vertical-align:top;">:</td><td><div><table><tr><td><div><table><tr><td><div>Home</div></td></tr><tr><td><div>False</div></td></tr><tr><td><div>/Longboxes/default/index</div></td></tr><tr><td><div><table></table></div></td></tr></table></div></td></tr><tr><td><div><table><tr><td><div>My Sites</div></td></tr><tr><td><div>False</div></td></tr><tr><td><div>/admin/default/site</div></td></tr></table></div></td></tr><tr><td><div><table><tr><td><div>This App</div></td></tr><tr><td><div>False</div></td></tr><tr><td><div>#</div></td></tr><tr><td><div><table><tr><td><div><table><tr><td><div>Design</div></td></tr><tr><td><div>False</div></td></tr><tr><td><div>/admin/default/design/Longboxes</div></td></tr></table></div></td></tr><tr><td><div><li class="divider"></li></div></td></tr><tr><td><div><table><tr><td><div>Controller</div></td></tr><tr><td><div>False</div></td></tr><tr><td><div>/admin/default/edit/Longboxes/controllers/default.py</div></td></tr></table></div></td></tr><tr><td><div><table><tr><td><div>View</div></td></tr><tr><td><div>False</div></td></tr><tr><td><div>/admin/default/edit/Longboxes/views/default/collection.html</div></td></tr></table></div></td></tr><tr><td><div><table><tr><td><div>DB Model</div></td></tr><tr><td><div>False</div></td></tr><tr><td><div>/admin/default/edit/Longboxes/models/db.py</div></td></tr></table></div></td></tr><tr><td><div><table><tr><td><div>Menu Model</div></td></tr><tr><td><div>False</div></td></tr><tr><td><div>/admin/default/edit/Longboxes/models/menu.py</div></td></tr></table></div></td></tr><tr><td><div><table><tr><td><div>Config.ini</div></td></tr><tr><td><div>False</div></td></tr><tr><td><div>/admin/default/edit/Longboxes/private/appconfig.ini</div></td></tr></table></div></td></tr><tr><td><div><table><tr><td><div>Layout</div></td></tr><tr><td><div>False</div></td></tr><tr><td><div>/admin/default/edit/Longboxes/views/layout.html</div></td></tr></table></div></td></tr><tr><td><div><table><tr><td><div>Stylesheet</div></td></tr><tr><td><div>False</div></td></tr><tr><td><div>/admin/default/edit/Longboxes/static/css/web2py-bootstrap3.css</div></td></tr></table></div></td></tr><tr><td><div><table><tr><td><div>Database</div></td></tr><tr><td><div>False</div></td></tr><tr><td><div>/Longboxes/appadmin/index</div></td></tr></table></div></td></tr><tr><td><div><table><tr><td><div>Errors</div></td></tr><tr><td><div>False</div></td></tr><tr><td><div>/admin/default/errors/Longboxes</div></td></tr></table></div></td></tr><tr><td><div><table><tr><td><div>About</div></td></tr><tr><td><div>False</div></td></tr><tr><td><div>/admin/default/about/Longboxes</div></td></tr></table></div></td></tr></table></div></td></tr></table></div></td></tr><tr><td><div><table><tr><td><div>web2py.com</div></td></tr><tr><td><div>False</div></td></tr><tr><td><div>#</div></td></tr><tr><td><div><table><tr><td><div><table><tr><td><div>Download</div></td></tr><tr><td><div>False</div></td></tr><tr><td><div>http://www.web2py.com/examples/default/download</div></td></tr></table></div></td></tr><tr><td><div><table><tr><td><div>Support</div></td></tr><tr><td><div>False</div></td></tr><tr><td><div>http://www.web2py.com/examples/default/support</div></td></tr></table></div></td></tr><tr><td><div><table><tr><td><div>Demo</div></td></tr><tr><td><div>False</div></td></tr><tr><td><div>http://web2py.com/demo_admin</div></td></tr></table></div></td></tr><tr><td><div><table><tr><td><div>Quick Examples</div></td></tr><tr><td><div>False</div></td></tr><tr><td><div>http://web2py.com/examples/default/examples</div></td></tr></table></div></td></tr><tr><td><div><table><tr><td><div>FAQ</div></td></tr><tr><td><div>False</div></td></tr><tr><td><div>http://web2py.com/AlterEgo</div></td></tr></table></div></td></tr><tr><td><div><table><tr><td><div>Videos</div></td></tr><tr><td><div>False</div></td></tr><tr><td><div>http://www.web2py.com/examples/default/videos/</div></td></tr></table></div></td></tr><tr><td><div><table><tr><td><div>Free Applications</div></td></tr><tr><td><div>False</div></td></tr><tr><td><div>http://web2py.com/appliances</div></td></tr></table></div></td></tr><tr><td><div><table><tr><td><div>Plugins</div></td></tr><tr><td><div>False</div></td></tr><tr><td><div>http://web2py.com/plugins</div></td></tr></table></div></td></tr><tr><td><div><table><tr><td><div>Recipes</div></td></tr><tr><td><div>False</div></td></tr><tr><td><div>http://web2pyslices.com/</div></td></tr></table></div></td></tr></table></div></td></tr></table></div></td></tr><tr><td><div><table><tr><td><div>Documentation</div></td></tr><tr><td><div>False</div></td></tr><tr><td><div>#</div></td></tr><tr><td><div><table><tr><td><div><table><tr><td><div>Online book</div></td></tr><tr><td><div>False</div></td></tr><tr><td><div>http://www.web2py.com/book</div></td></tr></table></div></td></tr><tr><td><div><li class="divider"></li></div></td></tr><tr><td><div><table><tr><td><div>Preface</div></td></tr><tr><td><div>False</div></td></tr><tr><td><div>http://www.web2py.com/book/default/chapter/00</div></td></tr></table></div></td></tr><tr><td><div><table><tr><td><div>Introduction</div></td></tr><tr><td><div>False</div></td></tr><tr><td><div>http://www.web2py.com/book/default/chapter/01</div></td></tr></table></div></td></tr><tr><td><div><table><tr><td><div>Python</div></td></tr><tr><td><div>False</div></td></tr><tr><td><div>http://www.web2py.com/book/default/chapter/02</div></td></tr></table></div></td></tr><tr><td><div><table><tr><td><div>Overview</div></td></tr><tr><td><div>False</div></td></tr><tr><td><div>http://www.web2py.com/book/default/chapter/03</div></td></tr></table></div></td></tr><tr><td><div><table><tr><td><div>The Core</div></td></tr><tr><td><div>False</div></td></tr><tr><td><div>http://www.web2py.com/book/default/chapter/04</div></td></tr></table></div></td></tr><tr><td><div><table><tr><td><div>The Views</div></td></tr><tr><td><div>False</div></td></tr><tr><td><div>http://www.web2py.com/book/default/chapter/05</div></td></tr></table></div></td></tr><tr><td><div><table><tr><td><div>Database</div></td></tr><tr><td><div>False</div></td></tr><tr><td><div>http://www.web2py.com/book/default/chapter/06</div></td></tr></table></div></td></tr><tr><td><div><table><tr><td><div>Forms and Validators</div></td></tr><tr><td><div>False</div></td></tr><tr><td><div>http://www.web2py.com/book/default/chapter/07</div></td></tr></table></div></td></tr><tr><td><div><table><tr><td><div>Email and SMS</div></td></tr><tr><td><div>False</div></td></tr><tr><td><div>http://www.web2py.com/book/default/chapter/08</div></td></tr></table></div></td></tr><tr><td><div><table><tr><td><div>Access Control</div></td></tr><tr><td><div>False</div></td></tr><tr><td><div>http://www.web2py.com/book/default/chapter/09</div></td></tr></table></div></td></tr><tr><td><div><table><tr><td><div>Services</div></td></tr><tr><td><div>False</div></td></tr><tr><td><div>http://www.web2py.com/book/default/chapter/10</div></td></tr></table></div></td></tr><tr><td><div><table><tr><td><div>Ajax Recipes</div></td></tr><tr><td><div>False</div></td></tr><tr><td><div>http://www.web2py.com/book/default/chapter/11</div></td></tr></table></div></td></tr><tr><td><div><table><tr><td><div>Components and Plugins</div></td></tr><tr><td><div>False</div></td></tr><tr><td><div>http://www.web2py.com/book/default/chapter/12</div></td></tr></table></div></td></tr><tr><td><div><table><tr><td><div>Deployment Recipes</div></td></tr><tr><td><div>False</div></td></tr><tr><td><div>http://www.web2py.com/book/default/chapter/13</div></td></tr></table></div></td></tr><tr><td><div><table><tr><td><div>Other Recipes</div></td></tr><tr><td><div>False</div></td></tr><tr><td><div>http://www.web2py.com/book/default/chapter/14</div></td></tr></table></div></td></tr><tr><td><div><table><tr><td><div>Helping web2py</div></td></tr><tr><td><div>False</div></td></tr><tr><td><div>http://www.web2py.com/book/default/chapter/15</div></td></tr></table></div></td></tr><tr><td><div><table><tr><td><div>Buy web2py\'s book</div></td></tr><tr><td><div>False</div></td></tr><tr><td><div>http://stores.lulu.com/web2py</div></td></tr></table></div></td></tr></table></div></td></tr></table></div></td></tr><tr><td><div><table><tr><td><div>Community</div></td></tr><tr><td><div>False</div></td></tr><tr><td><div>None</div></td></tr><tr><td><div><table><tr><td><div><table><tr><td><div>Groups</div></td></tr><tr><td><div>False</div></td></tr><tr><td><div>http://www.web2py.com/examples/default/usergroups</div></td></tr></table></div></td></tr><tr><td><div><table><tr><td><div>Twitter</div></td></tr><tr><td><div>False</div></td></tr><tr><td><div>http://twitter.com/web2py</div></td></tr></table></div></td></tr><tr><td><div><table><tr><td><div>Live Chat</div></td></tr><tr><td><div>False</div></td></tr><tr><td><div>http://webchat.freenode.net/?channels=web2py</div></td></tr></table></div></td></tr></table></div></td></tr></table></div></td></tr></table></div></td></tr><tr><td style="font-weight:bold;vertical-align:top;">meta</td><td style="vertical-align:top;">:</td><td><div><table><tr><td style="font-weight:bold;vertical-align:top;">author</td><td style="vertical-align:top;">:</td><td><div>Your Name &lt;you@example.com&gt;</div></td></tr><tr><td style="font-weight:bold;vertical-align:top;">description</td><td style="vertical-align:top;">:</td><td><div>a cool new app</div></td></tr><tr><td style="font-weight:bold;vertical-align:top;">generator</td><td style="vertical-align:top;">:</td><td><div>Web2py Web Framework</div></td></tr><tr><td style="font-weight:bold;vertical-align:top;">keywords</td><td style="vertical-align:top;">:</td><td><div>web2py, python, framework</div></td></tr></table></div></td></tr><tr><td style="font-weight:bold;vertical-align:top;">models_to_run</td><td style="vertical-align:top;">:</td><td><div><table><tr><td><div>^\\w+\\.py$</div></td></tr><tr><td><div>^default/\\w+\\.py$</div></td></tr><tr><td><div>^default/collection/\\w+\\.py$</div></td></tr></table></div></td></tr><tr><td style="font-weight:bold;vertical-align:top;">postprocessing</td><td style="vertical-align:top;">:</td><td><div><table></table></div></td></tr><tr><td style="font-weight:bold;vertical-align:top;">session_client</td><td style="vertical-align:top;">:</td><td><div>127.0.0.1</div></td></tr><tr><td style="font-weight:bold;vertical-align:top;">session_cookie_compression_level</td><td style="vertical-align:top;">:</td><td><div>None</div></td></tr><tr><td style="font-weight:bold;vertical-align:top;">session_cookie_expires</td><td style="vertical-align:top;">:</td><td><div>None</div></td></tr><tr><td style="font-weight:bold;vertical-align:top;">session_cookie_key</td><td style="vertical-align:top;">:</td><td><div>None</div></td></tr><tr><td style="font-weight:bold;vertical-align:top;">session_data_name</td><td style="vertical-align:top;">:</td><td><div>session_data_longboxes</div></td></tr><tr><td style="font-weight:bold;vertical-align:top;">session_file</td><td style="vertical-align:top;">:</td><td><div>&lt;open file &#x27;/Users/garethhandley/Google Drive/University of York/IAPT (Interactive Application Programming Techniques)/Assessments/Assessment 1 - Individual/web2py/web2py.app/Contents/Resources/applications/Longboxes/sessions/0ac/090/127.0.0.1-0f1fdcd9-e2de-4ecc-97f8-a78d9e16a55a&#x27;, mode &#x27;rb+&#x27; at 0x10ca2d9c0&gt;</div></td></tr><tr><td style="font-weight:bold;vertical-align:top;">session_filename</td><td style="vertical-align:top;">:</td><td><div>/Users/garethhandley/Google Drive/University of York/IAPT (Interactive Application Programming Techniques)/Assessments/Assessment 1 - Individual/web2py/web2py.app/Contents/Resources/applications/Longboxes/sessions/127.0.0.1-0f1fdcd9-e2de-4ecc-97f8-a78d9e16a55a</div></td></tr><tr><td style="font-weight:bold;vertical-align:top;">session_hash</td><td style="vertical-align:top;">:</td><td><div>809e0451562378ec363456179601bb75</div></td></tr><tr><td style="font-weight:bold;vertical-align:top;">session_id</td><td style="vertical-align:top;">:</td><td><div>127.0.0.1-0f1fdcd9-e2de-4ecc-97f8-a78d9e16a55a</div></td></tr><tr><td style="font-weight:bold;vertical-align:top;">session_id_name</td><td style="vertical-align:top;">:</td><td><div>session_id_longboxes</div></td></tr><tr><td style="font-weight:bold;vertical-align:top;">session_locked</td><td style="vertical-align:top;">:</td><td><div>True</div></td></tr><tr><td style="font-weight:bold;vertical-align:top;">session_masterapp</td><td style="vertical-align:top;">:</td><td><div>Longboxes</div></td></tr><tr><td style="font-weight:bold;vertical-align:top;">session_new</td><td style="vertical-align:top;">:</td><td><div>False</div></td></tr><tr><td style="font-weight:bold;vertical-align:top;">session_storage_type</td><td style="vertical-align:top;">:</td><td><div>file</div></td></tr><tr><td style="font-weight:bold;vertical-align:top;">status</td><td style="vertical-align:top;">:</td><td><div>200</div></td></tr><tr><td style="font-weight:bold;vertical-align:top;">subtitle</td><td style="vertical-align:top;">:</td><td><div></div></td></tr><tr><td style="font-weight:bold;vertical-align:top;">title</td><td style="vertical-align:top;">:</td><td><div>Longboxes</div></td></tr><tr><td style="font-weight:bold;vertical-align:top;">view</td><td style="vertical-align:top;">:</td><td><div>default/collection.html</div></td></tr></table></div>'
tRp130
sS'locals'
p131
(dp132
S'k'
S"'name'"
p133
sS'self'
p134
S"<Row {'publisher': 'Comics and Stuff', 'box_cont...t', 'user_id': 1L, 'id': 1L, 'issue_number': 1L}>"
p135
sssS'traceback'
p136
S'Traceback (most recent call last):\n  File "/Users/garethhandley/Google Drive/University of York/IAPT (Interactive Application Programming Techniques)/Assessments/Assessment 1 - Individual/web2py/web2py.app/Contents/Resources/gluon/restricted.py", line 227, in restricted\n  File "/Users/garethhandley/Google Drive/University of York/IAPT (Interactive Application Programming Techniques)/Assessments/Assessment 1 - Individual/web2py/web2py.app/Contents/Resources/applications/Longboxes/views/default/collection.html", line 133, in <module>\n  File "/Users/garethhandley/Google Drive/University of York/IAPT (Interactive Application Programming Techniques)/Assessments/Assessment 1 - Individual/web2py/web2py.app/Contents/Resources/gluon/packages/dal/pydal/objects.py", line 90, in __getattr__\nAttributeError\n'
p137
s.