(dp1
S'output'
p2
S"<type 'exceptions.NameError'> name 'form' is not defined"
p3
sS'layer'
p4
S'/Users/garethhandley/Google Drive/University of York/IAPT (Interactive Application Programming Techniques)/Assessments/Assessment 1 - Individual/web2py/web2py.app/Contents/Resources/applications/Longboxes/models/db.py'
p5
sS'code'
p6
S"db = DAL('sqlite://longboxes.db')\n\n# -*- coding: utf-8 -*-\n\n#########################################################################\n## Here is sample code if you need for\n## - email capabilities\n## - authentication (registration, login, logout, ... )\n## - authorization (role based authorization)\n## - services (xml, csv, json, xmlrpc, jsonrpc, amf, rss)\n## - old style crud actions\n## (more options discussed in gluon/tools.py)\n#########################################################################\n\ndef create_unfiled_box(form):\n    user_id = form.vars.id\n    unfiled_id = db.boxes.insert(user_id = form.vars.id, name = 'Unfiled', created_date = request.now, public = False)\n    db(db.auth_user.id == user_id).update(unfiled_id = unfiled_id)\n\nfrom gluon.tools import Auth, Service, PluginManager\n\nauth = Auth(db)\nservice = Service()\nplugins = PluginManager()\n\n## Add a setting to redirect to profile on login\nauth.settings.login_next = URL('collection')\n\n## Add a setting to disable unwanted auth features\nauth.settings.actions_disabled = ['retrieve_username', 'request_reset_password']\n\n## Add a setting which will add an 'Unfiled' box for the user when they sign up\n#auth.settings.register_onaccept.append(lambda form: db.boxes.insert(user_id = form.vars.id, name = 'Unfiled', created_date = request.now, public = False))\nauth.settings.register_onaccept = create_unfiled_box(form)\n\n\ndb.define_table(\n    auth.settings.table_user_name,\n    Field('first_name', length=128, default=''),\n    Field('last_name', length=128, default=''),\n    Field('unfiled_id'),\n    Field('username', length=128, default='', unique=True), # required\n    Field('password', 'password', length=512,            # required\n          readable=False, label='Password'),\n    Field('registration_key', length=512,                # required\n          writable=False, readable=False, default=''),\n    Field('reset_password_key', length=512,              # required\n          writable=False, readable=False, default=''),\n    Field('registration_id', length=512,                 # required\n          writable=False, readable=False, default='')),\n\n## do not forget validators\ncustom_auth_table = db[auth.settings.table_user_name] # get the custom_auth_table\ncustom_auth_table.first_name.requires =   IS_NOT_EMPTY(error_message=auth.messages.is_empty)\ncustom_auth_table.last_name.requires =   IS_NOT_EMPTY(error_message=auth.messages.is_empty)\ncustom_auth_table.password.requires = [CRYPT()]\ncustom_auth_table.username.requires = [\n  IS_NOT_IN_DB(db, custom_auth_table.username)]\n\nauth.settings.table_user = custom_auth_table # tell auth to use custom_auth_table\n\n## create all tables needed by auth if not custom tables\nauth.define_tables(username=True, signature=False)\n\n## configure email\nmail = auth.settings.mailer\nmail.settings.server = 'logging' if request.is_local else 'smtp.gmail.com:587'\nmail.settings.sender = 'you@gmail.com'\nmail.settings.login = 'username:password'\n\n## configure auth policy\nauth.settings.registration_requires_verification = False\nauth.settings.registration_requires_approval = False\nauth.settings.reset_password_requires_verification = True\n\n#########################################################################\n## Define your tables below (or better in another model file) for example\n##\n## >>> db.define_table('mytable',Field('myfield','string'))\n##\n## Fields can be 'string','text','password','integer','double','boolean'\n##       'date','time','datetime','blob','upload', 'reference TABLENAME'\n## There is an implicit 'id integer autoincrement' field\n## Consult manual for more options, validators, etc.\n##\n## More API examples for controllers:\n##\n## >>> db.mytable.insert(myfield='value')\n## >>> rows=db(db.mytable.myfield=='value').select(db.mytable.ALL)\n## >>> for row in rows: print row.id, row.myfield\n#########################################################################\n\n## after defining tables, uncomment below to enable auditing\n# auth.enable_record_versioning(db)\n\n#comics table\ndb.define_table('comics',\n\t\t\t\tField('title', type='text'),\n\t\t\t\tField('cover', type='upload'),\n\t\t\t\tField('issue_number', type='integer'),\n\t\t\t\tField('writers', type='text'),\n\t\t\t\tField('artists', type='text'),\n\t\t\t\tField('publisher', type='text'),\n\t\t\t\tField('description', type='text'),\n                                Field('user_id', db.auth_user))\n\t\t\t\n#boxes table\ndb.define_table('boxes',\n\t\t\t\tField('user_id', db.auth_user),\n\t\t\t\tField('name', type='text'),\n\t\t\t\tField('created_date', type='datetime'),\n\t\t\t\tField('public', type='boolean'))\n\t\t\t\n#box_contents table\ndb.define_table('box_contents',\n\t\t\t\tField('box_id', db.boxes),\n\t\t\t\tField('comic_id', db.comics))\n"
p7
sS'snapshot'
p8
(dp9
S'exception'
p10
(dp11
S'__hash__'
p12
S"<method-wrapper '__hash__' of exceptions.NameError object>"
p13
sS'__setattr__'
p14
S"<method-wrapper '__setattr__' of exceptions.NameError object>"
p15
sS'__reduce_ex__'
p16
S'<built-in method __reduce_ex__ of exceptions.NameError object>'
p17
sS'__getslice__'
p18
S"<method-wrapper '__getslice__' of exceptions.NameError object>"
p19
sS'__getitem__'
p20
S"<method-wrapper '__getitem__' of exceptions.NameError object>"
p21
sS'__setstate__'
p22
S'<built-in method __setstate__ of exceptions.NameError object>'
p23
sS'args'
p24
S'("name \'form\' is not defined",)'
p25
sS'__reduce__'
p26
S'<built-in method __reduce__ of exceptions.NameError object>'
p27
sS'__str__'
p28
S"<method-wrapper '__str__' of exceptions.NameError object>"
p29
sS'__format__'
p30
S'<built-in method __format__ of exceptions.NameError object>'
p31
sS'__getattribute__'
p32
S"<method-wrapper '__getattribute__' of exceptions.NameError object>"
p33
sS'__class__'
p34
S"<type 'exceptions.NameError'>"
p35
sS'__unicode__'
p36
S'<built-in method __unicode__ of exceptions.NameError object>'
p37
sS'__delattr__'
p38
S"<method-wrapper '__delattr__' of exceptions.NameError object>"
p39
sS'__subclasshook__'
p40
S'<built-in method __subclasshook__ of type object>'
p41
sS'__repr__'
p42
S"<method-wrapper '__repr__' of exceptions.NameError object>"
p43
sS'__dict__'
p44
S'{}'
p45
sS'__sizeof__'
p46
S'<built-in method __sizeof__ of exceptions.NameError object>'
p47
sS'__doc__'
p48
S"'Name not found globally.'"
p49
sS'__init__'
p50
S"<method-wrapper '__init__' of exceptions.NameError object>"
p51
sS'__new__'
p52
S'<built-in method __new__ of type object>'
p53
ssS'evalue'
p54
S"name 'form' is not defined"
p55
sS'request'
p56
cgluon.html
XML_unpickle
p57
(S's\xaed\x00\x00<div><table><tr><td style="font-weight:bold;vertical-align:top;">ajax</td><td style="vertical-align:top;">:</td><td><div>False</div></td></tr><tr><td style="font-weight:bold;vertical-align:top;">application</td><td style="vertical-align:top;">:</td><td><div>Longboxes</div></td></tr><tr><td style="font-weight:bold;vertical-align:top;">args</td><td style="vertical-align:top;">:</td><td><div><table><tr><td><div>db</div></td></tr></table></div></td></tr><tr><td style="font-weight:bold;vertical-align:top;">cid</td><td style="vertical-align:top;">:</td><td><div>None</div></td></tr><tr><td style="font-weight:bold;vertical-align:top;">client</td><td style="vertical-align:top;">:</td><td><div>127.0.0.1</div></td></tr><tr><td style="font-weight:bold;vertical-align:top;">controller</td><td style="vertical-align:top;">:</td><td><div>appadmin</div></td></tr><tr><td style="font-weight:bold;vertical-align:top;">cookies</td><td style="vertical-align:top;">:</td><td><div><table><tr><td style="font-weight:bold;vertical-align:top;">session_id_admin</td><td style="vertical-align:top;">:</td><td><div>127.0.0.1-6ba488ab-1a32-4fb5-8d05-190a12407088<table><tr><td style="font-weight:bold;vertical-align:top;">comment</td><td style="vertical-align:top;">:</td><td><div></div></td></tr><tr><td style="font-weight:bold;vertical-align:top;">domain</td><td style="vertical-align:top;">:</td><td><div></div></td></tr><tr><td style="font-weight:bold;vertical-align:top;">expires</td><td style="vertical-align:top;">:</td><td><div></div></td></tr><tr><td style="font-weight:bold;vertical-align:top;">httponly</td><td style="vertical-align:top;">:</td><td><div></div></td></tr><tr><td style="font-weight:bold;vertical-align:top;">max-age</td><td style="vertical-align:top;">:</td><td><div></div></td></tr><tr><td style="font-weight:bold;vertical-align:top;">path</td><td style="vertical-align:top;">:</td><td><div></div></td></tr><tr><td style="font-weight:bold;vertical-align:top;">secure</td><td style="vertical-align:top;">:</td><td><div></div></td></tr><tr><td style="font-weight:bold;vertical-align:top;">version</td><td style="vertical-align:top;">:</td><td><div></div></td></tr></table></div></td></tr><tr><td style="font-weight:bold;vertical-align:top;">session_id_longboxes</td><td style="vertical-align:top;">:</td><td><div>127.0.0.1-0f1fdcd9-e2de-4ecc-97f8-a78d9e16a55a<table><tr><td style="font-weight:bold;vertical-align:top;">comment</td><td style="vertical-align:top;">:</td><td><div></div></td></tr><tr><td style="font-weight:bold;vertical-align:top;">domain</td><td style="vertical-align:top;">:</td><td><div></div></td></tr><tr><td style="font-weight:bold;vertical-align:top;">expires</td><td style="vertical-align:top;">:</td><td><div></div></td></tr><tr><td style="font-weight:bold;vertical-align:top;">httponly</td><td style="vertical-align:top;">:</td><td><div></div></td></tr><tr><td style="font-weight:bold;vertical-align:top;">max-age</td><td style="vertical-align:top;">:</td><td><div></div></td></tr><tr><td style="font-weight:bold;vertical-align:top;">path</td><td style="vertical-align:top;">:</td><td><div></div></td></tr><tr><td style="font-weight:bold;vertical-align:top;">secure</td><td style="vertical-align:top;">:</td><td><div></div></td></tr><tr><td style="font-weight:bold;vertical-align:top;">version</td><td style="vertical-align:top;">:</td><td><div></div></td></tr></table></div></td></tr><tr><td style="font-weight:bold;vertical-align:top;">session_id_welcome</td><td style="vertical-align:top;">:</td><td><div>127.0.0.1-6be5d31b-66f1-4a04-a49b-6f1202444538<table><tr><td style="font-weight:bold;vertical-align:top;">comment</td><td style="vertical-align:top;">:</td><td><div></div></td></tr><tr><td style="font-weight:bold;vertical-align:top;">domain</td><td style="vertical-align:top;">:</td><td><div></div></td></tr><tr><td style="font-weight:bold;vertical-align:top;">expires</td><td style="vertical-align:top;">:</td><td><div></div></td></tr><tr><td style="font-weight:bold;vertical-align:top;">httponly</td><td style="vertical-align:top;">:</td><td><div></div></td></tr><tr><td style="font-weight:bold;vertical-align:top;">max-age</td><td style="vertical-align:top;">:</td><td><div></div></td></tr><tr><td style="font-weight:bold;vertical-align:top;">path</td><td style="vertical-align:top;">:</td><td><div></div></td></tr><tr><td style="font-weight:bold;vertical-align:top;">secure</td><td style="vertical-align:top;">:</td><td><div></div></td></tr><tr><td style="font-weight:bold;vertical-align:top;">version</td><td style="vertical-align:top;">:</td><td><div></div></td></tr></table></div></td></tr></table></div></td></tr><tr><td style="font-weight:bold;vertical-align:top;">env</td><td style="vertical-align:top;">:</td><td><div><table><tr><td style="font-weight:bold;vertical-align:top;">HTTP_ACCEPT</td><td style="vertical-align:top;">:</td><td><div>text/html,application/xhtml+xml,application/xml;q=0.9,*/*;q=0.8</div></td></tr><tr><td style="font-weight:bold;vertical-align:top;">HTTP_ACCEPT_ENCODING</td><td style="vertical-align:top;">:</td><td><div>gzip, deflate</div></td></tr><tr><td style="font-weight:bold;vertical-align:top;">HTTP_ACCEPT_LANGUAGE</td><td style="vertical-align:top;">:</td><td><div>en-us</div></td></tr><tr><td style="font-weight:bold;vertical-align:top;">HTTP_CACHE_CONTROL</td><td style="vertical-align:top;">:</td><td><div>max-age=0</div></td></tr><tr><td style="font-weight:bold;vertical-align:top;">HTTP_CONNECTION</td><td style="vertical-align:top;">:</td><td><div>keep-alive</div></td></tr><tr><td style="font-weight:bold;vertical-align:top;">HTTP_COOKIE</td><td style="vertical-align:top;">:</td><td><div>_ga=GA1.1.1034170765.1408293306; session_id_admin=127.0.0.1-6ba488ab-1a32-4fb5-8d05-190a12407088; session_id_longboxes=127.0.0.1-0f1fdcd9-e2de-4ecc-97f8-a78d9e16a55a; session_id_welcome=127.0.0.1-6be5d31b-66f1-4a04-a49b-6f1202444538</div></td></tr><tr><td style="font-weight:bold;vertical-align:top;">HTTP_HOST</td><td style="vertical-align:top;">:</td><td><div>127.0.0.1:8000</div></td></tr><tr><td style="font-weight:bold;vertical-align:top;">HTTP_REFERER</td><td style="vertical-align:top;">:</td><td><div>http://127.0.0.1:8000/Longboxes/appadmin/index</div></td></tr><tr><td style="font-weight:bold;vertical-align:top;">HTTP_USER_AGENT</td><td style="vertical-align:top;">:</td><td><div>Mozilla/5.0 (Macintosh; Intel Mac OS X 10_11_1) AppleWebKit/601.2.7 (KHTML, like Gecko) Version/9.0.1 Safari/601.2.7</div></td></tr><tr><td style="font-weight:bold;vertical-align:top;">PATH_INFO</td><td style="vertical-align:top;">:</td><td><div>/Longboxes/appadmin/select/db</div></td></tr><tr><td style="font-weight:bold;vertical-align:top;">QUERY_STRING</td><td style="vertical-align:top;">:</td><td><div>query=db.auth_user.id%3E0</div></td></tr><tr><td style="font-weight:bold;vertical-align:top;">REMOTE_ADDR</td><td style="vertical-align:top;">:</td><td><div>127.0.0.1</div></td></tr><tr><td style="font-weight:bold;vertical-align:top;">REMOTE_PORT</td><td style="vertical-align:top;">:</td><td><div>61005</div></td></tr><tr><td style="font-weight:bold;vertical-align:top;">REQUEST_METHOD</td><td style="vertical-align:top;">:</td><td><div>GET</div></td></tr><tr><td style="font-weight:bold;vertical-align:top;">SCRIPT_NAME</td><td style="vertical-align:top;">:</td><td><div></div></td></tr><tr><td style="font-weight:bold;vertical-align:top;">SERVER_NAME</td><td style="vertical-align:top;">:</td><td><div>imac.local</div></td></tr><tr><td style="font-weight:bold;vertical-align:top;">SERVER_PORT</td><td style="vertical-align:top;">:</td><td><div>8000</div></td></tr><tr><td style="font-weight:bold;vertical-align:top;">SERVER_PROTOCOL</td><td style="vertical-align:top;">:</td><td><div>HTTP/1.1</div></td></tr><tr><td style="font-weight:bold;vertical-align:top;">SERVER_SOFTWARE</td><td style="vertical-align:top;">:</td><td><div>Rocket 1.2.6</div></td></tr><tr><td style="font-weight:bold;vertical-align:top;">app_folders</td><td style="vertical-align:top;">:</td><td><div>set([&#x27;/Users/garethhandley/Google Drive/University of York/IAPT (Interactive Application Programming Techniques)/Assessments/Assessment 1 - Individual/web2py/web2py.app/Contents/Resources/applications/welcome/&#x27;, &#x27;/Users/garethhandley/Google Drive/University of York/IAPT (Interactive Application Programming Techniques)/Assessments/Assessment 1 - Individual/web2py/web2py.app/Contents/Resources/applications/Longboxes/&#x27;, &#x27;/Users/garethhandley/Google Drive/University of York/IAPT (Interactive Application Programming Techniques)/Assessments/Assessment 1 - Individual/web2py/web2py.app/Contents/Resources/applications/admin/&#x27;])</div></td></tr><tr><td style="font-weight:bold;vertical-align:top;">applications_parent</td><td style="vertical-align:top;">:</td><td><div>/Users/garethhandley/Google Drive/University of York/IAPT (Interactive Application Programming Techniques)/Assessments/Assessment 1 - Individual/web2py/web2py.app/Contents/Resources</div></td></tr><tr><td style="font-weight:bold;vertical-align:top;">cmd_args</td><td style="vertical-align:top;">:</td><td><div><table></table></div></td></tr><tr><td style="font-weight:bold;vertical-align:top;">cmd_options</td><td style="vertical-align:top;">:</td><td><div>&lt;Values at 0x1089509e0: {&#x27;verbose&#x27;: False, &#x27;ip&#x27;: &#x27;127.0.0.1&#x27;, &#x27;debuglevel&#x27;: 30, &#x27;with_scheduler&#x27;: False, &#x27;ips&#x27;: [], &#x27;shutdown_timeout&#x27;: 5, &#x27;taskbar&#x27;: False, &#x27;with_coverage&#x27;: False, &#x27;scheduler_groups&#x27;: None, &#x27;port&#x27;: 8000, &#x27;maxthreads&#x27;: None, &#x27;softcron&#x27;: False, &#x27;server_name&#x27;: &#x27;imac.local&#x27;, &#x27;bpython&#x27;: False, &#x27;nogui&#x27;: False, &#x27;pid_filename&#x27;: &#x27;httpserver.pid&#x27;, &#x27;print_errors&#x27;: False, &#x27;extcron&#x27;: False, &#x27;runcron&#x27;: False, &#x27;run_system_tests&#x27;: False, &#x27;test&#x27;: None, &#x27;folder&#x27;: &#x27;/Users/garethhandley/Google Drive/University of York/IAPT (Interactive Application Programming Techniques)/Assessments/Assessment 1 - Individual/web2py/web2py.app/Contents/Resources&#x27;, &#x27;config&#x27;: &#x27;&#x27;, &#x27;minthreads&#x27;: None, &#x27;shell&#x27;: None, &#x27;run&#x27;: &#x27;&#x27;, &#x27;log_filename&#x27;: &#x27;httpserver.log&#x27;, &#x27;profiler_dir&#x27;: None, &#x27;args&#x27;: [&#x27;&#x27;], &#x27;socket_timeout&#x27;: 5, &#x27;ssl_ca_certificate&#x27;: None, &#x27;scheduler&#x27;: None, &#x27;interfaces&#x27;: None, &#x27;ssl_private_key&#x27;: &#x27;&#x27;, &#x27;gae&#x27;: None, &#x27;password&#x27;: &#x27;&lt;ask&gt;&#x27;, &#x27;request_queue_size&#x27;: 5, &#x27;ssl_certificate&#x27;: &#x27;&#x27;, &#x27;cronjob&#x27;: False, &#x27;numthreads&#x27;: None, &#x27;quiet&#x27;: False, &#x27;import_models&#x27;: False, &#x27;timeout&#x27;: 10, &#x27;plain&#x27;: False, &#x27;nobanner&#x27;: False}&gt;</div></td></tr><tr><td style="font-weight:bold;vertical-align:top;">db_sessions</td><td style="vertical-align:top;">:</td><td><div>set([])</div></td></tr><tr><td style="font-weight:bold;vertical-align:top;">debugging</td><td style="vertical-align:top;">:</td><td><div>False</div></td></tr><tr><td style="font-weight:bold;vertical-align:top;">gluon_parent</td><td style="vertical-align:top;">:</td><td><div>/Users/garethhandley/Google Drive/University of York/IAPT (Interactive Application Programming Techniques)/Assessments/Assessment 1 - Individual/web2py/web2py.app/Contents/Resources</div></td></tr><tr><td style="font-weight:bold;vertical-align:top;">http_accept</td><td style="vertical-align:top;">:</td><td><div>text/html,application/xhtml+xml,application/xml;q=0.9,*/*;q=0.8</div></td></tr><tr><td style="font-weight:bold;vertical-align:top;">http_accept_encoding</td><td style="vertical-align:top;">:</td><td><div>gzip, deflate</div></td></tr><tr><td style="font-weight:bold;vertical-align:top;">http_accept_language</td><td style="vertical-align:top;">:</td><td><div>en-us</div></td></tr><tr><td style="font-weight:bold;vertical-align:top;">http_cache_control</td><td style="vertical-align:top;">:</td><td><div>max-age=0</div></td></tr><tr><td style="font-weight:bold;vertical-align:top;">http_connection</td><td style="vertical-align:top;">:</td><td><div>keep-alive</div></td></tr><tr><td style="font-weight:bold;vertical-align:top;">http_cookie</td><td style="vertical-align:top;">:</td><td><div>_ga=GA1.1.1034170765.1408293306; session_id_admin=127.0.0.1-6ba488ab-1a32-4fb5-8d05-190a12407088; session_id_longboxes=127.0.0.1-0f1fdcd9-e2de-4ecc-97f8-a78d9e16a55a; session_id_welcome=127.0.0.1-6be5d31b-66f1-4a04-a49b-6f1202444538</div></td></tr><tr><td style="font-weight:bold;vertical-align:top;">http_host</td><td style="vertical-align:top;">:</td><td><div>127.0.0.1:8000</div></td></tr><tr><td style="font-weight:bold;vertical-align:top;">http_referer</td><td style="vertical-align:top;">:</td><td><div>http://127.0.0.1:8000/Longboxes/appadmin/index</div></td></tr><tr><td style="font-weight:bold;vertical-align:top;">http_user_agent</td><td style="vertical-align:top;">:</td><td><div>Mozilla/5.0 (Macintosh; Intel Mac OS X 10_11_1) AppleWebKit/601.2.7 (KHTML, like Gecko) Version/9.0.1 Safari/601.2.7</div></td></tr><tr><td style="font-weight:bold;vertical-align:top;">is_jython</td><td style="vertical-align:top;">:</td><td><div>False</div></td></tr><tr><td style="font-weight:bold;vertical-align:top;">is_pypy</td><td style="vertical-align:top;">:</td><td><div>False</div></td></tr><tr><td style="font-weight:bold;vertical-align:top;">is_source</td><td style="vertical-align:top;">:</td><td><div>True</div></td></tr><tr><td style="font-weight:bold;vertical-align:top;">local_hosts</td><td style="vertical-align:top;">:</td><td><div><table><tr><td><div>::1</div></td></tr><tr><td><div>imac.local</div></td></tr><tr><td><div>::ffff:127.0.0.1</div></td></tr><tr><td><div>127.0.0.1</div></td></tr></table></div></td></tr><tr><td style="font-weight:bold;vertical-align:top;">path_info</td><td style="vertical-align:top;">:</td><td><div>/Longboxes/appadmin/select/db</div></td></tr><tr><td style="font-weight:bold;vertical-align:top;">query_string</td><td style="vertical-align:top;">:</td><td><div>query=db.auth_user.id%3E0</div></td></tr><tr><td style="font-weight:bold;vertical-align:top;">remote_addr</td><td style="vertical-align:top;">:</td><td><div>127.0.0.1</div></td></tr><tr><td style="font-weight:bold;vertical-align:top;">remote_port</td><td style="vertical-align:top;">:</td><td><div>61005</div></td></tr><tr><td style="font-weight:bold;vertical-align:top;">request_method</td><td style="vertical-align:top;">:</td><td><div>GET</div></td></tr><tr><td style="font-weight:bold;vertical-align:top;">request_uri</td><td style="vertical-align:top;">:</td><td><div>/Longboxes/appadmin/select/db?query=db.auth_user.id%3E0</div></td></tr><tr><td style="font-weight:bold;vertical-align:top;">script_name</td><td style="vertical-align:top;">:</td><td><div></div></td></tr><tr><td style="font-weight:bold;vertical-align:top;">server_name</td><td style="vertical-align:top;">:</td><td><div>imac.local</div></td></tr><tr><td style="font-weight:bold;vertical-align:top;">server_port</td><td style="vertical-align:top;">:</td><td><div>8000</div></td></tr><tr><td style="font-weight:bold;vertical-align:top;">server_protocol</td><td style="vertical-align:top;">:</td><td><div>HTTP/1.1</div></td></tr><tr><td style="font-weight:bold;vertical-align:top;">server_software</td><td style="vertical-align:top;">:</td><td><div>Rocket 1.2.6</div></td></tr><tr><td style="font-weight:bold;vertical-align:top;">web2py_path</td><td style="vertical-align:top;">:</td><td><div>/Users/garethhandley/Google Drive/University of York/IAPT (Interactive Application Programming Techniques)/Assessments/Assessment 1 - Individual/web2py/web2py.app/Contents/Resources</div></td></tr><tr><td style="font-weight:bold;vertical-align:top;">web2py_version</td><td style="vertical-align:top;">:</td><td><div>2.12.3-stable+timestamp.2015.08.19.00.18.03</div></td></tr><tr><td style="font-weight:bold;vertical-align:top;">wsgi.errors</td><td style="vertical-align:top;">:</td><td><div>&lt;open file &#x27;&lt;stderr&gt;&#x27;, mode &#x27;w&#x27; at 0x10005b270&gt;</div></td></tr><tr><td style="font-weight:bold;vertical-align:top;">wsgi.file_wrapper</td><td style="vertical-align:top;">:</td><td><div>&lt;class wsgiref.util.FileWrapper at 0x1088fe460&gt;</div></td></tr><tr><td style="font-weight:bold;vertical-align:top;">wsgi.input</td><td style="vertical-align:top;">:</td><td><div>&lt;socket._fileobject object at 0x10cf587d0&gt;</div></td></tr><tr><td style="font-weight:bold;vertical-align:top;">wsgi.multiprocess</td><td style="vertical-align:top;">:</td><td><div>False</div></td></tr><tr><td style="font-weight:bold;vertical-align:top;">wsgi.multithread</td><td style="vertical-align:top;">:</td><td><div>True</div></td></tr><tr><td style="font-weight:bold;vertical-align:top;">wsgi.run_once</td><td style="vertical-align:top;">:</td><td><div>False</div></td></tr><tr><td style="font-weight:bold;vertical-align:top;">wsgi.url_scheme</td><td style="vertical-align:top;">:</td><td><div>http</div></td></tr><tr><td style="font-weight:bold;vertical-align:top;">wsgi.version</td><td style="vertical-align:top;">:</td><td><div><table><tr><td><div>1</div></td></tr><tr><td><div>0</div></td></tr></table></div></td></tr><tr><td style="font-weight:bold;vertical-align:top;">wsgi_errors</td><td style="vertical-align:top;">:</td><td><div>&lt;open file &#x27;&lt;stderr&gt;&#x27;, mode &#x27;w&#x27; at 0x10005b270&gt;</div></td></tr><tr><td style="font-weight:bold;vertical-align:top;">wsgi_file_wrapper</td><td style="vertical-align:top;">:</td><td><div>&lt;class wsgiref.util.FileWrapper at 0x1088fe460&gt;</div></td></tr><tr><td style="font-weight:bold;vertical-align:top;">wsgi_input</td><td style="vertical-align:top;">:</td><td><div>&lt;socket._fileobject object at 0x10cf587d0&gt;</div></td></tr><tr><td style="font-weight:bold;vertical-align:top;">wsgi_multiprocess</td><td style="vertical-align:top;">:</td><td><div>False</div></td></tr><tr><td style="font-weight:bold;vertical-align:top;">wsgi_multithread</td><td style="vertical-align:top;">:</td><td><div>True</div></td></tr><tr><td style="font-weight:bold;vertical-align:top;">wsgi_run_once</td><td style="vertical-align:top;">:</td><td><div>False</div></td></tr><tr><td style="font-weight:bold;vertical-align:top;">wsgi_url_scheme</td><td style="vertical-align:top;">:</td><td><div>http</div></td></tr><tr><td style="font-weight:bold;vertical-align:top;">wsgi_version</td><td style="vertical-align:top;">:</td><td><div><table><tr><td><div>1</div></td></tr><tr><td><div>0</div></td></tr></table></div></td></tr></table></div></td></tr><tr><td style="font-weight:bold;vertical-align:top;">extension</td><td style="vertical-align:top;">:</td><td><div>html</div></td></tr><tr><td style="font-weight:bold;vertical-align:top;">folder</td><td style="vertical-align:top;">:</td><td><div>/Users/garethhandley/Google Drive/University of York/IAPT (Interactive Application Programming Techniques)/Assessments/Assessment 1 - Individual/web2py/web2py.app/Contents/Resources/applications/Longboxes/</div></td></tr><tr><td style="font-weight:bold;vertical-align:top;">function</td><td style="vertical-align:top;">:</td><td><div>select</div></td></tr><tr><td style="font-weight:bold;vertical-align:top;">global_settings</td><td style="vertical-align:top;">:</td><td><div><table><tr><td style="font-weight:bold;vertical-align:top;">app_folders</td><td style="vertical-align:top;">:</td><td><div>set([&#x27;/Users/garethhandley/Google Drive/University of York/IAPT (Interactive Application Programming Techniques)/Assessments/Assessment 1 - Individual/web2py/web2py.app/Contents/Resources/applications/welcome/&#x27;, &#x27;/Users/garethhandley/Google Drive/University of York/IAPT (Interactive Application Programming Techniques)/Assessments/Assessment 1 - Individual/web2py/web2py.app/Contents/Resources/applications/Longboxes/&#x27;, &#x27;/Users/garethhandley/Google Drive/University of York/IAPT (Interactive Application Programming Techniques)/Assessments/Assessment 1 - Individual/web2py/web2py.app/Contents/Resources/applications/admin/&#x27;])</div></td></tr><tr><td style="font-weight:bold;vertical-align:top;">applications_parent</td><td style="vertical-align:top;">:</td><td><div>/Users/garethhandley/Google Drive/University of York/IAPT (Interactive Application Programming Techniques)/Assessments/Assessment 1 - Individual/web2py/web2py.app/Contents/Resources</div></td></tr><tr><td style="font-weight:bold;vertical-align:top;">cmd_args</td><td style="vertical-align:top;">:</td><td><div><table></table></div></td></tr><tr><td style="font-weight:bold;vertical-align:top;">cmd_options</td><td style="vertical-align:top;">:</td><td><div>&lt;Values at 0x1089509e0: {&#x27;verbose&#x27;: False, &#x27;ip&#x27;: &#x27;127.0.0.1&#x27;, &#x27;debuglevel&#x27;: 30, &#x27;with_scheduler&#x27;: False, &#x27;ips&#x27;: [], &#x27;shutdown_timeout&#x27;: 5, &#x27;taskbar&#x27;: False, &#x27;with_coverage&#x27;: False, &#x27;scheduler_groups&#x27;: None, &#x27;port&#x27;: 8000, &#x27;maxthreads&#x27;: None, &#x27;softcron&#x27;: False, &#x27;server_name&#x27;: &#x27;imac.local&#x27;, &#x27;bpython&#x27;: False, &#x27;nogui&#x27;: False, &#x27;pid_filename&#x27;: &#x27;httpserver.pid&#x27;, &#x27;print_errors&#x27;: False, &#x27;extcron&#x27;: False, &#x27;runcron&#x27;: False, &#x27;run_system_tests&#x27;: False, &#x27;test&#x27;: None, &#x27;folder&#x27;: &#x27;/Users/garethhandley/Google Drive/University of York/IAPT (Interactive Application Programming Techniques)/Assessments/Assessment 1 - Individual/web2py/web2py.app/Contents/Resources&#x27;, &#x27;config&#x27;: &#x27;&#x27;, &#x27;minthreads&#x27;: None, &#x27;shell&#x27;: None, &#x27;run&#x27;: &#x27;&#x27;, &#x27;log_filename&#x27;: &#x27;httpserver.log&#x27;, &#x27;profiler_dir&#x27;: None, &#x27;args&#x27;: [&#x27;&#x27;], &#x27;socket_timeout&#x27;: 5, &#x27;ssl_ca_certificate&#x27;: None, &#x27;scheduler&#x27;: None, &#x27;interfaces&#x27;: None, &#x27;ssl_private_key&#x27;: &#x27;&#x27;, &#x27;gae&#x27;: None, &#x27;password&#x27;: &#x27;&lt;ask&gt;&#x27;, &#x27;request_queue_size&#x27;: 5, &#x27;ssl_certificate&#x27;: &#x27;&#x27;, &#x27;cronjob&#x27;: False, &#x27;numthreads&#x27;: None, &#x27;quiet&#x27;: False, &#x27;import_models&#x27;: False, &#x27;timeout&#x27;: 10, &#x27;plain&#x27;: False, &#x27;nobanner&#x27;: False}&gt;</div></td></tr><tr><td style="font-weight:bold;vertical-align:top;">db_sessions</td><td style="vertical-align:top;">:</td><td><div>set([])</div></td></tr><tr><td style="font-weight:bold;vertical-align:top;">debugging</td><td style="vertical-align:top;">:</td><td><div>False</div></td></tr><tr><td style="font-weight:bold;vertical-align:top;">gluon_parent</td><td style="vertical-align:top;">:</td><td><div>/Users/garethhandley/Google Drive/University of York/IAPT (Interactive Application Programming Techniques)/Assessments/Assessment 1 - Individual/web2py/web2py.app/Contents/Resources</div></td></tr><tr><td style="font-weight:bold;vertical-align:top;">is_jython</td><td style="vertical-align:top;">:</td><td><div>False</div></td></tr><tr><td style="font-weight:bold;vertical-align:top;">is_pypy</td><td style="vertical-align:top;">:</td><td><div>False</div></td></tr><tr><td style="font-weight:bold;vertical-align:top;">is_source</td><td style="vertical-align:top;">:</td><td><div>True</div></td></tr><tr><td style="font-weight:bold;vertical-align:top;">local_hosts</td><td style="vertical-align:top;">:</td><td><div><table><tr><td><div>::1</div></td></tr><tr><td><div>imac.local</div></td></tr><tr><td><div>::ffff:127.0.0.1</div></td></tr><tr><td><div>127.0.0.1</div></td></tr></table></div></td></tr><tr><td style="font-weight:bold;vertical-align:top;">web2py_version</td><td style="vertical-align:top;">:</td><td><div>2.12.3-stable+timestamp.2015.08.19.00.18.03</div></td></tr></table></div></td></tr><tr><td style="font-weight:bold;vertical-align:top;">is_https</td><td style="vertical-align:top;">:</td><td><div>False</div></td></tr><tr><td style="font-weight:bold;vertical-align:top;">is_local</td><td style="vertical-align:top;">:</td><td><div>True</div></td></tr><tr><td style="font-weight:bold;vertical-align:top;">is_restful</td><td style="vertical-align:top;">:</td><td><div>False</div></td></tr><tr><td style="font-weight:bold;vertical-align:top;">is_sheduler</td><td style="vertical-align:top;">:</td><td><div>None</div></td></tr><tr><td style="font-weight:bold;vertical-align:top;">is_shell</td><td style="vertical-align:top;">:</td><td><div>None</div></td></tr><tr><td style="font-weight:bold;vertical-align:top;">now</td><td style="vertical-align:top;">:</td><td><div>datetime.datetime(2015, 11, 30, 18, 59, 57, 821472)</div></td></tr><tr><td style="font-weight:bold;vertical-align:top;">raw_args</td><td style="vertical-align:top;">:</td><td><div>db</div></td></tr><tr><td style="font-weight:bold;vertical-align:top;">raw_extension</td><td style="vertical-align:top;">:</td><td><div>None</div></td></tr><tr><td style="font-weight:bold;vertical-align:top;">url</td><td style="vertical-align:top;">:</td><td><div>/Longboxes/appadmin/select/db</div></td></tr><tr><td style="font-weight:bold;vertical-align:top;">utcnow</td><td style="vertical-align:top;">:</td><td><div>datetime.datetime(2015, 11, 30, 18, 59, 57, 821479)</div></td></tr><tr><td style="font-weight:bold;vertical-align:top;">wsgi</td><td style="vertical-align:top;">:</td><td><div>&lt;gluon.main.LazyWSGI object at 0x10b939fd0&gt;</div></td></tr></table></div>'
tRp58
sS'frames'
p59
(lp60
(dp61
S'file'
p62
S'/Users/garethhandley/Google Drive/University of York/IAPT (Interactive Application Programming Techniques)/Assessments/Assessment 1 - Individual/web2py/web2py.app/Contents/Resources/gluon/restricted.py'
p63
sS'dump'
p64
(dp65
sS'lnum'
p66
I227
sS'lines'
p67
(dp68
I224
S'            ccode = code'
p69
sI225
S'        else:'
p70
sI226
S'            ccode = compile2(code, layer)'
p71
sI227
S'        exec ccode in environment'
p72
sI228
S'    except HTTP:'
p73
sI229
S'        raise'
p74
sI230
S'    except RestrictedError:'
p75
sI231
S'        # do not encapsulate (obfuscate) the original RestrictedError'
p76
sI222
S'    try:'
p77
sI223
S'        if isinstance(code, types.CodeType):'
p78
ssS'call'
p79
S'(code="db = DAL(\'sqlite://longboxes.db\')\\n\\n# -*- coding:...d\', db.boxes),\\n\\t\\t\\t\\tField(\'comic_id\', db.comics))\\n", environment={\'A\': <class \'gluon.html.A\'>, \'ANY_OF\': <class \'gluon.validators.ANY_OF\'>, \'ASSIGNJS\': <function ASSIGNJS>, \'Auth\': <class \'gluon.tools.Auth\'>, \'B\': <class \'gluon.html.B\'>, \'BEAUTIFY\': <class \'gluon.html.BEAUTIFY\'>, \'BODY\': <class \'gluon.html.BODY\'>, \'BR\': <class \'gluon.html.BR\'>, \'BUTTON\': <class \'gluon.html.BUTTON\'>, \'CAT\': <class \'gluon.html.CAT\'>, ...}, layer=\'/Users/garethhandley/Google Drive/University of ...nts/Resources/applications/Longboxes/models/db.py\')'
p80
sS'func'
p81
S'restricted'
p82
sa(dp83
g62
S'/Users/garethhandley/Google Drive/University of York/IAPT (Interactive Application Programming Techniques)/Assessments/Assessment 1 - Individual/web2py/web2py.app/Contents/Resources/applications/Longboxes/models/db.py'
p84
sg64
(dp85
sg66
I34
sg67
(dp86
I32
S"## Add a setting which will add an 'Unfiled' box for the user when they sign up"
p87
sI33
S"#auth.settings.register_onaccept.append(lambda form: db.boxes.insert(user_id = form.vars.id, name = 'Unfiled', created_date = request.now, public = False))"
p88
sI34
S'auth.settings.register_onaccept = create_unfiled_box(form)'
p89
sI35
S''
sI36
S''
sI37
S'db.define_table('
p90
sI38
S'    auth.settings.table_user_name,'
p91
sI29
S'## Add a setting to disable unwanted auth features'
p92
sI30
S"auth.settings.actions_disabled = ['retrieve_username', 'request_reset_password']"
p93
sI31
S''
ssg79
S'()'
p94
sg81
S'<module>'
p95
sasS'pyver'
p96
S'Python 2.7.3: /Users/garethhandley/Google Drive/University of York/IAPT (Interactive Application Programming Techniques)/Assessments/Assessment 1 - Individual/web2py/web2py.app/Contents/MacOS/python (prefix: /Users/garethhandley/Google Drive/University of York/IAPT (Interactive Application Programming Techniques)/Assessments/Assessment 1 - Individual/web2py/web2py.app/Contents/Resources)'
p97
sS'session'
p98
g57
(S's\x01\n\x00\x00<div><table><tr><td style="font-weight:bold;vertical-align:top;">auth</td><td style="vertical-align:top;">:</td><td><div><table><tr><td style="font-weight:bold;vertical-align:top;">expiration</td><td style="vertical-align:top;">:</td><td><div>3600</div></td></tr><tr><td style="font-weight:bold;vertical-align:top;">hmac_key</td><td style="vertical-align:top;">:</td><td><div>4fe52d0b-f88c-434a-a253-ab3e236dbd52</div></td></tr><tr><td style="font-weight:bold;vertical-align:top;">last_visit</td><td style="vertical-align:top;">:</td><td><div>datetime.datetime(2015, 11, 30, 18, 59, 57, 821472)</div></td></tr><tr><td style="font-weight:bold;vertical-align:top;">remember_me</td><td style="vertical-align:top;">:</td><td><div>False</div></td></tr><tr><td style="font-weight:bold;vertical-align:top;">user</td><td style="vertical-align:top;">:</td><td><div><table><tr><td style="font-weight:bold;vertical-align:top;">first_name</td><td style="vertical-align:top;">:</td><td><div>User1</div></td></tr><tr><td style="font-weight:bold;vertical-align:top;">id</td><td style="vertical-align:top;">:</td><td><div>1L</div></td></tr><tr><td style="font-weight:bold;vertical-align:top;">last_name</td><td style="vertical-align:top;">:</td><td><div>Person</div></td></tr><tr><td style="font-weight:bold;vertical-align:top;">registration_id</td><td style="vertical-align:top;">:</td><td><div></div></td></tr><tr><td style="font-weight:bold;vertical-align:top;">registration_key</td><td style="vertical-align:top;">:</td><td><div></div></td></tr><tr><td style="font-weight:bold;vertical-align:top;">reset_password_key</td><td style="vertical-align:top;">:</td><td><div></div></td></tr><tr><td style="font-weight:bold;vertical-align:top;">username</td><td style="vertical-align:top;">:</td><td><div>user1</div></td></tr></table></div></td></tr><tr><td style="font-weight:bold;vertical-align:top;">user_groups</td><td style="vertical-align:top;">:</td><td><div><table><tr><td style="font-weight:bold;vertical-align:top;">1</td><td style="vertical-align:top;">:</td><td><div>user_1</div></td></tr></table></div></td></tr></table></div></td></tr><tr><td style="font-weight:bold;vertical-align:top;">flash</td><td style="vertical-align:top;">:</td><td><div>None</div></td></tr><tr><td style="font-weight:bold;vertical-align:top;">last_orderby</td><td style="vertical-align:top;">:</td><td><div>None</div></td></tr><tr><td style="font-weight:bold;vertical-align:top;">last_query</td><td style="vertical-align:top;">:</td><td><div>db.auth_user.id&gt;0</div></td></tr></table></div>'
tRp99
sS'etype'
p100
S"<type 'exceptions.NameError'>"
p101
sS'date'
p102
S'Mon Nov 30 18:59:57 2015'
p103
sS'response'
p104
g57
(S's=\x19\x00\x00<div><table><tr><td style="font-weight:bold;vertical-align:top;">body</td><td style="vertical-align:top;">:</td><td><div>&lt;cStringIO.StringO object at 0x10c8ee3b0&gt;</div></td></tr><tr><td style="font-weight:bold;vertical-align:top;">cookies</td><td style="vertical-align:top;">:</td><td><div><table><tr><td style="font-weight:bold;vertical-align:top;">session_id_longboxes</td><td style="vertical-align:top;">:</td><td><div>127.0.0.1-0f1fdcd9-e2de-4ecc-97f8-a78d9e16a55a<table><tr><td style="font-weight:bold;vertical-align:top;">comment</td><td style="vertical-align:top;">:</td><td><div></div></td></tr><tr><td style="font-weight:bold;vertical-align:top;">domain</td><td style="vertical-align:top;">:</td><td><div></div></td></tr><tr><td style="font-weight:bold;vertical-align:top;">expires</td><td style="vertical-align:top;">:</td><td><div></div></td></tr><tr><td style="font-weight:bold;vertical-align:top;">httponly</td><td style="vertical-align:top;">:</td><td><div></div></td></tr><tr><td style="font-weight:bold;vertical-align:top;">max-age</td><td style="vertical-align:top;">:</td><td><div></div></td></tr><tr><td style="font-weight:bold;vertical-align:top;">path</td><td style="vertical-align:top;">:</td><td><div>/</div></td></tr><tr><td style="font-weight:bold;vertical-align:top;">secure</td><td style="vertical-align:top;">:</td><td><div></div></td></tr><tr><td style="font-weight:bold;vertical-align:top;">version</td><td style="vertical-align:top;">:</td><td><div></div></td></tr></table></div></td></tr></table></div></td></tr><tr><td style="font-weight:bold;vertical-align:top;">delimiters</td><td style="vertical-align:top;">:</td><td><div><table><tr><td><div>{{</div></td></tr><tr><td><div>}}</div></td></tr></table></div></td></tr><tr><td style="font-weight:bold;vertical-align:top;">files</td><td style="vertical-align:top;">:</td><td><div><table></table></div></td></tr><tr><td style="font-weight:bold;vertical-align:top;">flash</td><td style="vertical-align:top;">:</td><td><div></div></td></tr><tr><td style="font-weight:bold;vertical-align:top;">form_label_separator</td><td style="vertical-align:top;">:</td><td><div>: </div></td></tr><tr><td style="font-weight:bold;vertical-align:top;">formstyle</td><td style="vertical-align:top;">:</td><td><div>table3cols</div></td></tr><tr><td style="font-weight:bold;vertical-align:top;">generic_patterns</td><td style="vertical-align:top;">:</td><td><div><table><tr><td><div>*</div></td></tr></table></div></td></tr><tr><td style="font-weight:bold;vertical-align:top;">headers</td><td style="vertical-align:top;">:</td><td><div><table><tr><td style="font-weight:bold;vertical-align:top;">X-Powered-By</td><td style="vertical-align:top;">:</td><td><div>web2py</div></td></tr></table></div></td></tr><tr><td style="font-weight:bold;vertical-align:top;">menu</td><td style="vertical-align:top;">:</td><td><div><table></table></div></td></tr><tr><td style="font-weight:bold;vertical-align:top;">meta</td><td style="vertical-align:top;">:</td><td><div><table></table></div></td></tr><tr><td style="font-weight:bold;vertical-align:top;">models_to_run</td><td style="vertical-align:top;">:</td><td><div><table><tr><td><div>^\\w+\\.py$</div></td></tr><tr><td><div>^appadmin/\\w+\\.py$</div></td></tr><tr><td><div>^appadmin/select/\\w+\\.py$</div></td></tr></table></div></td></tr><tr><td style="font-weight:bold;vertical-align:top;">postprocessing</td><td style="vertical-align:top;">:</td><td><div><table></table></div></td></tr><tr><td style="font-weight:bold;vertical-align:top;">session_client</td><td style="vertical-align:top;">:</td><td><div>127.0.0.1</div></td></tr><tr><td style="font-weight:bold;vertical-align:top;">session_cookie_compression_level</td><td style="vertical-align:top;">:</td><td><div>None</div></td></tr><tr><td style="font-weight:bold;vertical-align:top;">session_cookie_expires</td><td style="vertical-align:top;">:</td><td><div>None</div></td></tr><tr><td style="font-weight:bold;vertical-align:top;">session_cookie_key</td><td style="vertical-align:top;">:</td><td><div>None</div></td></tr><tr><td style="font-weight:bold;vertical-align:top;">session_data_name</td><td style="vertical-align:top;">:</td><td><div>session_data_longboxes</div></td></tr><tr><td style="font-weight:bold;vertical-align:top;">session_file</td><td style="vertical-align:top;">:</td><td><div>&lt;open file &#x27;/Users/garethhandley/Google Drive/University of York/IAPT (Interactive Application Programming Techniques)/Assessments/Assessment 1 - Individual/web2py/web2py.app/Contents/Resources/applications/Longboxes/sessions/0ac/090/127.0.0.1-0f1fdcd9-e2de-4ecc-97f8-a78d9e16a55a&#x27;, mode &#x27;rb+&#x27; at 0x10bf121e0&gt;</div></td></tr><tr><td style="font-weight:bold;vertical-align:top;">session_filename</td><td style="vertical-align:top;">:</td><td><div>/Users/garethhandley/Google Drive/University of York/IAPT (Interactive Application Programming Techniques)/Assessments/Assessment 1 - Individual/web2py/web2py.app/Contents/Resources/applications/Longboxes/sessions/127.0.0.1-0f1fdcd9-e2de-4ecc-97f8-a78d9e16a55a</div></td></tr><tr><td style="font-weight:bold;vertical-align:top;">session_hash</td><td style="vertical-align:top;">:</td><td><div>d6a723be4506307592f483d6d4b0c3b8</div></td></tr><tr><td style="font-weight:bold;vertical-align:top;">session_id</td><td style="vertical-align:top;">:</td><td><div>127.0.0.1-0f1fdcd9-e2de-4ecc-97f8-a78d9e16a55a</div></td></tr><tr><td style="font-weight:bold;vertical-align:top;">session_id_name</td><td style="vertical-align:top;">:</td><td><div>session_id_longboxes</div></td></tr><tr><td style="font-weight:bold;vertical-align:top;">session_locked</td><td style="vertical-align:top;">:</td><td><div>True</div></td></tr><tr><td style="font-weight:bold;vertical-align:top;">session_masterapp</td><td style="vertical-align:top;">:</td><td><div>Longboxes</div></td></tr><tr><td style="font-weight:bold;vertical-align:top;">session_new</td><td style="vertical-align:top;">:</td><td><div>False</div></td></tr><tr><td style="font-weight:bold;vertical-align:top;">session_storage_type</td><td style="vertical-align:top;">:</td><td><div>file</div></td></tr><tr><td style="font-weight:bold;vertical-align:top;">status</td><td style="vertical-align:top;">:</td><td><div>200</div></td></tr><tr><td style="font-weight:bold;vertical-align:top;">view</td><td style="vertical-align:top;">:</td><td><div>appadmin/select.html</div></td></tr></table></div>'
tRp105
sS'locals'
p106
(dp107
S'Service'
p108
S"<class 'gluon.tools.Service'>"
p109
sS'OBJECT'
p110
S"<class 'gluon.html.OBJECT'>"
p111
sS'SQLDB'
p112
S"<class 'pydal.base.DAL'>"
p113
sg98
S"<Storage {'_formkey[boxes/create]': ['dacfc364-c...aeed5', '892c1940-c32b-4b95-93dd-504353fff681']}>"
p114
sS'LINK'
p115
S"<class 'gluon.html.LINK'>"
p116
sS'BR'
p117
S"<class 'gluon.html.BR'>"
p118
sS'local_import'
p119
S'<function <lambda>>'
p120
sS'OPTGROUP'
p121
S"<class 'gluon.html.OPTGROUP'>"
p122
sS'__package__'
p123
S'None'
p124
sS'PRE'
p125
S"<class 'gluon.html.PRE'>"
p126
sS'IS_INT_IN_RANGE'
p127
S"<class 'gluon.validators.IS_INT_IN_RANGE'>"
p128
sS'IS_LOWER'
p129
S"<class 'gluon.validators.IS_LOWER'>"
p130
sS'IS_STRONG'
p131
S"<class 'gluon.validators.IS_STRONG'>"
p132
sS'cache'
p133
S'<gluon.cache.Cache object>'
p134
sS'IS_IN_DB'
p135
S"<class 'gluon.validators.IS_IN_DB'>"
p136
sS'TAG'
p137
S'<gluon.html.__TAG__ object>'
p138
sS'SQLField'
p139
S"<class 'pydal.objects.Field'>"
p140
sS'BODY'
p141
S"<class 'gluon.html.BODY'>"
p142
sS'IS_DATE_IN_RANGE'
p143
S"<class 'gluon.validators.IS_DATE_IN_RANGE'>"
p144
sS'TH'
p145
S"<class 'gluon.html.TH'>"
p146
sS'URL'
p147
S'<function URL>'
p148
sS'__file__'
p149
S"'/Users/garethhandley/Google Drive/University of ...nts/Resources/applications/Longboxes/models/db.py'"
p150
sS'db'
p151
S'<DAL uri="sqlite://longboxes.db">'
p152
sS'auth'
p153
S'<gluon.tools.Auth object>'
p154
sS'P'
S"<class 'gluon.html.P'>"
p155
sS'TFOOT'
p156
S"<class 'gluon.html.TFOOT'>"
p157
sS'XHTML'
p158
S"<class 'gluon.html.XHTML'>"
p159
sS'ON'
p160
S'True'
p161
sS'OL'
p162
S"<class 'gluon.html.OL'>"
p163
sS'TEXTAREA'
p164
S"<class 'gluon.html.TEXTAREA'>"
p165
sS'MENU'
p166
S"<class 'gluon.html.MENU'>"
p167
sS'LOAD'
p168
S'<function LOAD>'
p169
sS'CODE'
p170
S"<class 'gluon.html.CODE'>"
p171
sS'HTTP'
p172
S"<class 'gluon.http.HTTP'>"
p173
sS'HR'
p174
S"<class 'gluon.html.HR'>"
p175
sS'IS_DATETIME'
p176
S"<class 'gluon.validators.IS_DATETIME'>"
p177
sS'HEAD'
p178
S"<class 'gluon.html.HEAD'>"
p179
sS'LABEL'
p180
S"<class 'gluon.html.LABEL'>"
p181
sS'CLEANUP'
p182
S"<class 'gluon.validators.CLEANUP'>"
p183
sS'plugins'
p184
S'<gluon.tools.PluginManager object>'
p185
sS'SELECT'
p186
S"<class 'gluon.html.SELECT'>"
p187
sS'CENTER'
p188
S"<class 'gluon.html.CENTER'>"
p189
sS'Auth'
p190
S"<class 'gluon.tools.Auth'>"
p191
sS'create_unfiled_box'
p192
S'<function create_unfiled_box>'
p193
sS'__builtins__'
p194
S"{'ArithmeticError': <type 'exceptions.ArithmeticError'>, 'AssertionError': <type 'exceptions.AssertionError'>, 'AttributeError': <type 'exceptions.AttributeError'>, 'BaseException': <type 'exceptions.BaseException'>, 'BufferError': <type 'exceptions.BufferError'>, 'BytesWarning': <type 'exceptions.BytesWarning'>, 'DeprecationWarning': <type 'exceptions.DeprecationWarning'>, 'EOFError': <type 'exceptions.EOFError'>, 'Ellipsis': Ellipsis, 'EnvironmentError': <type 'exceptions.EnvironmentError'>, ...}"
p195
sS'HTML'
p196
S"<class 'gluon.html.HTML'>"
p197
sS'SQLFORM'
p198
S"<class 'gluon.sqlhtml.SQLFORM'>"
p199
sS'EM'
p200
S"<class 'gluon.html.EM'>"
p201
sS'redirect'
p202
S'<function redirect>'
p203
sS'FIELDSET'
p204
S"<class 'gluon.html.FIELDSET'>"
p205
sS'IS_EQUAL_TO'
p206
S"<class 'gluon.validators.IS_EQUAL_TO'>"
p207
sS'embed64'
p208
S'<function embed64>'
p209
sS'IS_LIST_OF'
p210
S"<class 'gluon.validators.IS_LIST_OF'>"
p211
sS'__name__'
p212
S"'__restricted__'"
p213
sS'EMBED'
p214
S"<class 'gluon.html.EMBED'>"
p215
sS'FORM'
p216
S"<class 'gluon.html.FORM'>"
p217
sS'H2'
p218
S"<class 'gluon.html.H2'>"
p219
sS'H3'
p220
S"<class 'gluon.html.H3'>"
p221
sS'BUTTON'
p222
S"<class 'gluon.html.BUTTON'>"
p223
sS'H1'
p224
S"<class 'gluon.html.H1'>"
p225
sS'H6'
p226
S"<class 'gluon.html.H6'>"
p227
sS'H4'
p228
S"<class 'gluon.html.H4'>"
p229
sS'H5'
p230
S"<class 'gluon.html.H5'>"
p231
sS'UL'
p232
S"<class 'gluon.html.UL'>"
p233
sS'IS_UPPER'
p234
S"<class 'gluon.validators.IS_UPPER'>"
p235
sS'xmlescape'
p236
S'<function xmlescape>'
p237
sS'IS_TIME'
p238
S"<class 'gluon.validators.IS_TIME'>"
p239
sS'OPTION'
p240
S"<class 'gluon.html.OPTION'>"
p241
sS'TITLE'
p242
S"<class 'gluon.html.TITLE'>"
p243
sS'CRYPT'
p244
S"<class 'gluon.validators.CRYPT'>"
p245
sS'IS_EMPTY_OR'
p246
S"<class 'gluon.validators.IS_EMPTY_OR'>"
p247
sS'MARKMIN'
p248
S"<class 'gluon.html.MARKMIN'>"
p249
sS'INPUT'
p250
S"<class 'gluon.html.INPUT'>"
p251
sS'STRONG'
p252
S"<class 'gluon.html.STRONG'>"
p253
sS'COL'
p254
S"<class 'gluon.html.COL'>"
p255
sS'service'
p256
S'<gluon.tools.Service object>'
p257
sS'SCRIPT'
p258
S"<class 'gluon.html.SCRIPT'>"
p259
sS'TABLE'
p260
S"<class 'gluon.html.TABLE'>"
p261
sS'IS_IPV4'
p262
S"<class 'gluon.validators.IS_IPV4'>"
p263
sS'IS_LENGTH'
p264
S"<class 'gluon.validators.IS_LENGTH'>"
p265
sS'IS_IPV6'
p266
S"<class 'gluon.validators.IS_IPV6'>"
p267
sS'XML'
p268
S"<class 'gluon.html.XML'>"
p269
sS'B'
S"<class 'gluon.html.B'>"
p270
sS'IMG'
p271
S"<class 'gluon.html.IMG'>"
p272
sS'SQLTABLE'
p273
S"<class 'gluon.sqlhtml.SQLTABLE'>"
p274
sS'IS_MATCH'
p275
S"<class 'gluon.validators.IS_MATCH'>"
p276
sS'IS_ALPHANUMERIC'
p277
S"<class 'gluon.validators.IS_ALPHANUMERIC'>"
p278
sS'SPAN'
p279
S"<class 'gluon.html.SPAN'>"
p280
sS'IS_JSON'
p281
S"<class 'gluon.validators.IS_JSON'>"
p282
sS'IS_IPADDRESS'
p283
S"<class 'gluon.validators.IS_IPADDRESS'>"
p284
sS'IS_SLUG'
p285
S"<class 'gluon.validators.IS_SLUG'>"
p286
sS'BEAUTIFY'
p287
S"<class 'gluon.html.BEAUTIFY'>"
p288
sS'META'
p289
S"<class 'gluon.html.META'>"
p290
sS'IS_DATE'
p291
S"<class 'gluon.validators.IS_DATE'>"
p292
sS'IS_EMAIL'
p293
S"<class 'gluon.validators.IS_EMAIL'>"
p294
sS'IS_NOT_EMPTY'
p295
S"<class 'gluon.validators.IS_NOT_EMPTY'>"
p296
sS'IS_FLOAT_IN_RANGE'
p297
S"<class 'gluon.validators.IS_FLOAT_IN_RANGE'>"
p298
sS'TBODY'
p299
S"<class 'gluon.html.TBODY'>"
p300
sS'CAT'
p301
S"<class 'gluon.html.CAT'>"
p302
sS'Field'
p303
S"<class 'pydal.objects.Field'>"
p304
sS'IS_LIST_OF_EMAILS'
p305
S"<class 'gluon.validators.IS_LIST_OF_EMAILS'>"
p306
sS'DIV'
p307
S"<class 'gluon.html.DIV'>"
p308
sS'LEGEND'
p309
S"<class 'gluon.html.LEGEND'>"
p310
sS'COLGROUP'
p311
S"<class 'gluon.html.COLGROUP'>"
p312
sS'DAL'
p313
S"<class 'pydal.base.DAL'>"
p314
sS'ASSIGNJS'
p315
S'<function ASSIGNJS>'
p316
sS'TR'
p317
S"<class 'gluon.html.TR'>"
p318
sS'LI'
p319
S"<class 'gluon.html.LI'>"
p320
sS'IFRAME'
p321
S"<class 'gluon.html.IFRAME'>"
p322
sS'TD'
p323
S"<class 'gluon.html.TD'>"
p324
sS'PluginManager'
p325
S"<class 'gluon.tools.PluginManager'>"
p326
sS'IS_URL'
p327
S"<class 'gluon.validators.IS_URL'>"
p328
sS'A'
S"<class 'gluon.html.A'>"
p329
sS'STYLE'
p330
S"<class 'gluon.html.STYLE'>"
p331
sS'IS_DATETIME_IN_RANGE'
p332
S"<class 'gluon.validators.IS_DATETIME_IN_RANGE'>"
p333
sS'IS_IMAGE'
p334
S"<class 'gluon.validators.IS_IMAGE'>"
p335
sS'I'
S"<class 'gluon.html.I'>"
p336
sS'IS_NOT_IN_DB'
p337
S"<class 'gluon.validators.IS_NOT_IN_DB'>"
p338
sg104
S"<Storage {'body': <cStringIO.StringO object at 0...at 0x10c73fed8>, 'view': 'appadmin/select.html'}>"
p339
sS'THEAD'
p340
S"<class 'gluon.html.THEAD'>"
p341
sS'ANY_OF'
p342
S"<class 'gluon.validators.ANY_OF'>"
p343
sS'IS_NULL_OR'
p344
S"<class 'gluon.validators.IS_EMPTY_OR'>"
p345
sg56
S"<Storage {'_vars': None, 'function': 'select', '...app/Contents/Resources/applications/Longboxes/'}>"
p346
sS'IS_EXPR'
p347
S"<class 'gluon.validators.IS_EXPR'>"
p348
sS'IS_IN_SET'
p349
S"<class 'gluon.validators.IS_IN_SET'>"
p350
sS'IS_UPLOAD_FILENAME'
p351
S"<class 'gluon.validators.IS_UPLOAD_FILENAME'>"
p352
sS'IS_DECIMAL_IN_RANGE'
p353
S"<class 'gluon.validators.IS_DECIMAL_IN_RANGE'>"
p354
sS'TT'
p355
S"<class 'gluon.html.TT'>"
p356
sS'T'
S'<gluon.languages.translator object>'
p357
sssS'traceback'
p358
S'Traceback (most recent call last):\n  File "/Users/garethhandley/Google Drive/University of York/IAPT (Interactive Application Programming Techniques)/Assessments/Assessment 1 - Individual/web2py/web2py.app/Contents/Resources/gluon/restricted.py", line 227, in restricted\n  File "/Users/garethhandley/Google Drive/University of York/IAPT (Interactive Application Programming Techniques)/Assessments/Assessment 1 - Individual/web2py/web2py.app/Contents/Resources/applications/Longboxes/models/db.py", line 34, in <module>\nNameError: name \'form\' is not defined\n'
p359
s.